TN:
SF:/Library/Developer/CommandLineTools/usr/include/c++/v1/__split_buffer
FN:56,_ZNSt3__114__split_bufferIP8keyvalueRNS_9allocatorIS2_EEE7__allocEv
FN:56,_ZNSt3__114__split_bufferIP5valueRNS_9allocatorIS2_EEE7__allocEv
FN:58,_ZNSt3__114__split_bufferIP8keyvalueRNS_9allocatorIS2_EEE9__end_capEv
FN:58,_ZNSt3__114__split_bufferIP5valueRNS_9allocatorIS2_EEE9__end_capEv
FN:59,_ZNKSt3__114__split_bufferIP5valueRNS_9allocatorIS2_EEE9__end_capEv
FN:59,_ZNKSt3__114__split_bufferIP8keyvalueRNS_9allocatorIS2_EEE9__end_capEv
FN:87,_ZNSt3__114__split_bufferIP5valueRNS_9allocatorIS2_EEE5clearEv
FN:87,_ZNSt3__114__split_bufferIP8keyvalueRNS_9allocatorIS2_EEE5clearEv
FN:91,_ZNKSt3__114__split_bufferIP8keyvalueRNS_9allocatorIS2_EEE8capacityEv
FN:91,_ZNKSt3__114__split_bufferIP5valueRNS_9allocatorIS2_EEE8capacityEv
FN:140,_ZNSt3__114__split_bufferIP5valueRNS_9allocatorIS2_EEE17__destruct_at_endEPS2_
FN:140,_ZNSt3__114__split_bufferIP8keyvalueRNS_9allocatorIS2_EEE17__destruct_at_endEPS2_
FN:293,_ZNSt3__114__split_bufferIP8keyvalueRNS_9allocatorIS2_EEE17__destruct_at_endEPS2_NS_17integral_constantIbLb0EEE
FN:293,_ZNSt3__114__split_bufferIP5valueRNS_9allocatorIS2_EEE17__destruct_at_endEPS2_NS_17integral_constantIbLb0EEE
FN:308,_ZNSt3__114__split_bufferIP5valueRNS_9allocatorIS2_EEEC1EmmS5_
FN:308,_ZNSt3__114__split_bufferIP8keyvalueRNS_9allocatorIS2_EEEC1EmmS5_
FN:308,_ZNSt3__114__split_bufferIP8keyvalueRNS_9allocatorIS2_EEEC2EmmS5_
FN:308,_ZNSt3__114__split_bufferIP5valueRNS_9allocatorIS2_EEEC2EmmS5_
FN:339,_ZNSt3__114__split_bufferIP5valueRNS_9allocatorIS2_EEED1Ev
FN:339,_ZNSt3__114__split_bufferIP5valueRNS_9allocatorIS2_EEED2Ev
FN:339,_ZNSt3__114__split_bufferIP8keyvalueRNS_9allocatorIS2_EEED2Ev
FN:339,_ZNSt3__114__split_bufferIP8keyvalueRNS_9allocatorIS2_EEED1Ev
FNDA:0,_ZNSt3__114__split_bufferIP5valueRNS_9allocatorIS2_EEE7__allocEv
FNDA:0,_ZNSt3__114__split_bufferIP8keyvalueRNS_9allocatorIS2_EEE7__allocEv
FNDA:0,_ZNSt3__114__split_bufferIP5valueRNS_9allocatorIS2_EEE9__end_capEv
FNDA:0,_ZNSt3__114__split_bufferIP8keyvalueRNS_9allocatorIS2_EEE9__end_capEv
FNDA:0,_ZNKSt3__114__split_bufferIP5valueRNS_9allocatorIS2_EEE9__end_capEv
FNDA:0,_ZNKSt3__114__split_bufferIP8keyvalueRNS_9allocatorIS2_EEE9__end_capEv
FNDA:0,_ZNSt3__114__split_bufferIP5valueRNS_9allocatorIS2_EEE5clearEv
FNDA:0,_ZNSt3__114__split_bufferIP8keyvalueRNS_9allocatorIS2_EEE5clearEv
FNDA:0,_ZNKSt3__114__split_bufferIP5valueRNS_9allocatorIS2_EEE8capacityEv
FNDA:0,_ZNKSt3__114__split_bufferIP8keyvalueRNS_9allocatorIS2_EEE8capacityEv
FNDA:0,_ZNSt3__114__split_bufferIP5valueRNS_9allocatorIS2_EEE17__destruct_at_endEPS2_
FNDA:0,_ZNSt3__114__split_bufferIP8keyvalueRNS_9allocatorIS2_EEE17__destruct_at_endEPS2_
FNDA:0,_ZNSt3__114__split_bufferIP5valueRNS_9allocatorIS2_EEE17__destruct_at_endEPS2_NS_17integral_constantIbLb0EEE
FNDA:0,_ZNSt3__114__split_bufferIP8keyvalueRNS_9allocatorIS2_EEE17__destruct_at_endEPS2_NS_17integral_constantIbLb0EEE
FNDA:0,_ZNSt3__114__split_bufferIP5valueRNS_9allocatorIS2_EEEC1EmmS5_
FNDA:0,_ZNSt3__114__split_bufferIP5valueRNS_9allocatorIS2_EEEC2EmmS5_
FNDA:0,_ZNSt3__114__split_bufferIP8keyvalueRNS_9allocatorIS2_EEEC1EmmS5_
FNDA:0,_ZNSt3__114__split_bufferIP8keyvalueRNS_9allocatorIS2_EEEC2EmmS5_
FNDA:0,_ZNSt3__114__split_bufferIP5valueRNS_9allocatorIS2_EEED1Ev
FNDA:0,_ZNSt3__114__split_bufferIP5valueRNS_9allocatorIS2_EEED2Ev
FNDA:0,_ZNSt3__114__split_bufferIP8keyvalueRNS_9allocatorIS2_EEED1Ev
FNDA:0,_ZNSt3__114__split_bufferIP8keyvalueRNS_9allocatorIS2_EEED2Ev
FNF:22
FNH:0
DA:56,0
DA:58,0
DA:59,0
DA:88,0
DA:91,0
DA:141,0
DA:295,0
DA:296,0
DA:297,0
DA:309,0
DA:310,0
DA:311,0
DA:312,0
DA:313,0
DA:314,0
DA:340,0
DA:341,0
DA:342,0
DA:343,0
DA:344,0
LF:20
LH:0
end_of_record
SF:/Library/Developer/CommandLineTools/usr/include/c++/v1/algorithm
FN:719,_ZNKSt3__16__lessImmEclERKmS3_
FN:2644,_ZNSt3__13minImNS_6__lessImmEEEERKT_S5_S5_T0_
FN:2652,_ZNSt3__13minImEERKT_S3_S3_
FN:2709,_ZNSt3__13maxImNS_6__lessImmEEEERKT_S5_S5_T0_
FN:2717,_ZNSt3__13maxImEERKT_S3_S3_
FNDA:0,_ZNKSt3__16__lessImmEclERKmS3_
FNDA:0,_ZNSt3__13minImNS_6__lessImmEEEERKT_S5_S5_T0_
FNDA:0,_ZNSt3__13minImEERKT_S3_S3_
FNDA:0,_ZNSt3__13maxImNS_6__lessImmEEEERKT_S5_S5_T0_
FNDA:0,_ZNSt3__13maxImEERKT_S3_S3_
FNF:5
FNH:0
DA:719,0
DA:2646,0
DA:2654,0
DA:2711,0
DA:2719,0
LF:5
LH:0
end_of_record
SF:/Library/Developer/CommandLineTools/usr/include/c++/v1/limits
FN:213,_ZNSt3__123__libcpp_numeric_limitsIlLb1EE3maxEv
FN:450,_ZNSt3__114numeric_limitsIlE3maxEv
FNDA:0,_ZNSt3__123__libcpp_numeric_limitsIlLb1EE3maxEv
FNDA:0,_ZNSt3__114numeric_limitsIlE3maxEv
FNF:2
FNH:0
DA:213,0
DA:450,0
LF:2
LH:0
end_of_record
SF:/Library/Developer/CommandLineTools/usr/include/c++/v1/memory
FN:1095,_ZNSt3__116__to_raw_pointerIP5valueEEPT_S4_
FN:1095,_ZNSt3__116__to_raw_pointerIP8keyvalueEEPT_S4_
FN:1501,_ZNSt3__116allocator_traitsINS_9allocatorIP8keyvalueEEE8allocateERS4_m
FN:1501,_ZNSt3__116allocator_traitsINS_9allocatorIP5valueEEE8allocateERS4_m
FN:1509,_ZNSt3__116allocator_traitsINS_9allocatorIP8keyvalueEEE10deallocateERS4_PS3_m
FN:1509,_ZNSt3__116allocator_traitsINS_9allocatorIP5valueEEE10deallocateERS4_PS3_m
FN:1515,_ZNSt3__116allocator_traitsINS_9allocatorIP5valueEEE9constructIS3_JRKS3_EEEvRS4_PT_DpOT0_
FN:1515,_ZNSt3__116allocator_traitsINS_9allocatorIP8keyvalueEEE9constructIS3_JRKS3_EEEvRS4_PT_DpOT0_
FN:1549,_ZNSt3__116allocator_traitsINS_9allocatorIP8keyvalueEEE7destroyIS3_EEvRS4_PT_
FN:1549,_ZNSt3__116allocator_traitsINS_9allocatorIP5valueEEE7destroyIS3_EEvRS4_PT_
FN:1553,_ZNSt3__116allocator_traitsINS_9allocatorIP8keyvalueEEE8max_sizeERKS4_
FN:1553,_ZNSt3__116allocator_traitsINS_9allocatorIP5valueEEE8max_sizeERKS4_
FN:1647,_ZNSt3__116allocator_traitsINS_9allocatorIP8keyvalueEEE20__construct_backwardIS3_EENS_9enable_ifIXaaoosr7is_sameIS4_NS1_IT_EEEE5valuentsr15__has_constructIS4_PS8_S8_EE5valuesr31is_trivially_move_constructibleIS8_EE5valueEvE4typeERS4_SA_SA_RSA_
FN:1647,_ZNSt3__116allocator_traitsINS_9allocatorIP5valueEEE20__construct_backwardIS3_EENS_9enable_ifIXaaoosr7is_sameIS4_NS1_IT_EEEE5valuentsr15__has_constructIS4_PS8_S8_EE5valuesr31is_trivially_move_constructibleIS8_EE5valueEvE4typeERS4_SA_SA_RSA_
FN:1669,_ZNSt3__116allocator_traitsINS_9allocatorIP8keyvalueEEE11__constructIS3_JRKS3_EEEvNS_17integral_constantIbLb1EEERS4_PT_DpOT0_
FN:1669,_ZNSt3__116allocator_traitsINS_9allocatorIP5valueEEE11__constructIS3_JRKS3_EEEvNS_17integral_constantIbLb1EEERS4_PT_DpOT0_
FN:1681,_ZNSt3__116allocator_traitsINS_9allocatorIP8keyvalueEEE9__destroyIS3_EEvNS_17integral_constantIbLb1EEERS4_PT_
FN:1681,_ZNSt3__116allocator_traitsINS_9allocatorIP5valueEEE9__destroyIS3_EEvNS_17integral_constantIbLb1EEERS4_PT_
FN:1691,_ZNSt3__116allocator_traitsINS_9allocatorIP8keyvalueEEE10__max_sizeENS_17integral_constantIbLb1EEERKS4_
FN:1691,_ZNSt3__116allocator_traitsINS_9allocatorIP5valueEEE10__max_sizeENS_17integral_constantIbLb1EEERKS4_
FN:1736,_ZNSt3__19allocatorIP8keyvalueEC2Ev
FN:1736,_ZNSt3__19allocatorIP5valueEC2Ev
FN:1742,_ZNSt3__19allocatorIP5valueE8allocateEmPKv
FN:1742,_ZNSt3__19allocatorIP8keyvalueE8allocateEmPKv
FN:1749,_ZNSt3__19allocatorIP5valueE10deallocateEPS2_m
FN:1749,_ZNSt3__19allocatorIP8keyvalueE10deallocateEPS2_m
FN:1751,_ZNKSt3__19allocatorIP5valueE8max_sizeEv
FN:1751,_ZNKSt3__19allocatorIP8keyvalueE8max_sizeEv
FN:1757,_ZNSt3__19allocatorIP8keyvalueE9constructIS2_JRKS2_EEEvPT_DpOT0_
FN:1757,_ZNSt3__19allocatorIP5valueE9constructIS2_JRKS2_EEEvPT_DpOT0_
FN:1814,_ZNSt3__19allocatorIP5valueE7destroyEPS2_
FN:1814,_ZNSt3__19allocatorIP8keyvalueE7destroyEPS2_
FN:2050,_ZNSt3__122__compressed_pair_elemIRNS_9allocatorIP5valueEELi1ELb0EEC2IS5_vEEOT_
FN:2050,_ZNSt3__122__compressed_pair_elemIPP5valueLi0ELb0EEC2IDnvEEOT_
FN:2050,_ZNSt3__122__compressed_pair_elemIPP8keyvalueLi0ELb0EEC2IDnvEEOT_
FN:2050,_ZNSt3__122__compressed_pair_elemIRNS_9allocatorIP8keyvalueEELi1ELb0EEC2IS5_vEEOT_
FN:2064,_ZNSt3__122__compressed_pair_elemIPP5valueLi0ELb0EE5__getEv
FN:2064,_ZNSt3__122__compressed_pair_elemIRNS_9allocatorIP5valueEELi1ELb0EE5__getEv
FN:2064,_ZNSt3__122__compressed_pair_elemIPP8keyvalueLi0ELb0EE5__getEv
FN:2064,_ZNSt3__122__compressed_pair_elemIRNS_9allocatorIP8keyvalueEELi1ELb0EE5__getEv
FN:2066,_ZNKSt3__122__compressed_pair_elemIPP8keyvalueLi0ELb0EE5__getEv
FN:2066,_ZNKSt3__122__compressed_pair_elemIPP5valueLi0ELb0EE5__getEv
FN:2080,_ZNSt3__122__compressed_pair_elemINS_9allocatorIP5valueEELi1ELb1EEC2Ev
FN:2080,_ZNSt3__122__compressed_pair_elemINS_9allocatorIP8keyvalueEELi1ELb1EEC2Ev
FN:2102,_ZNSt3__122__compressed_pair_elemINS_9allocatorIP8keyvalueEELi1ELb1EE5__getEv
FN:2102,_ZNSt3__122__compressed_pair_elemINS_9allocatorIP5valueEELi1ELb1EE5__getEv
FN:2104,_ZNKSt3__122__compressed_pair_elemINS_9allocatorIP8keyvalueEELi1ELb1EE5__getEv
FN:2104,_ZNKSt3__122__compressed_pair_elemINS_9allocatorIP5valueEELi1ELb1EE5__getEv
FN:2140,_ZNSt3__117__compressed_pairIPP8keyvalueNS_9allocatorIS2_EEEC2IDnLb1EEEOT_
FN:2140,_ZNSt3__117__compressed_pairIPP8keyvalueNS_9allocatorIS2_EEEC1IDnLb1EEEOT_
FN:2140,_ZNSt3__117__compressed_pairIPP5valueNS_9allocatorIS2_EEEC2IDnLb1EEEOT_
FN:2140,_ZNSt3__117__compressed_pairIPP5valueNS_9allocatorIS2_EEEC1IDnLb1EEEOT_
FN:2150,_ZNSt3__117__compressed_pairIPP5valueRNS_9allocatorIS2_EEEC2IDnS6_EEOT_OT0_
FN:2150,_ZNSt3__117__compressed_pairIPP8keyvalueRNS_9allocatorIS2_EEEC1IDnS6_EEOT_OT0_
FN:2150,_ZNSt3__117__compressed_pairIPP8keyvalueRNS_9allocatorIS2_EEEC2IDnS6_EEOT_OT0_
FN:2150,_ZNSt3__117__compressed_pairIPP5valueRNS_9allocatorIS2_EEEC1IDnS6_EEOT_OT0_
FN:2179,_ZNSt3__117__compressed_pairIPP5valueRNS_9allocatorIS2_EEE5firstEv
FN:2179,_ZNSt3__117__compressed_pairIPP8keyvalueRNS_9allocatorIS2_EEE5firstEv
FN:2179,_ZNSt3__117__compressed_pairIPP5valueNS_9allocatorIS2_EEE5firstEv
FN:2179,_ZNSt3__117__compressed_pairIPP8keyvalueNS_9allocatorIS2_EEE5firstEv
FN:2184,_ZNKSt3__117__compressed_pairIPP8keyvalueNS_9allocatorIS2_EEE5firstEv
FN:2184,_ZNKSt3__117__compressed_pairIPP5valueRNS_9allocatorIS2_EEE5firstEv
FN:2184,_ZNKSt3__117__compressed_pairIPP8keyvalueRNS_9allocatorIS2_EEE5firstEv
FN:2184,_ZNKSt3__117__compressed_pairIPP5valueNS_9allocatorIS2_EEE5firstEv
FN:2189,_ZNSt3__117__compressed_pairIPP5valueNS_9allocatorIS2_EEE6secondEv
FN:2189,_ZNSt3__117__compressed_pairIPP8keyvalueRNS_9allocatorIS2_EEE6secondEv
FN:2189,_ZNSt3__117__compressed_pairIPP8keyvalueNS_9allocatorIS2_EEE6secondEv
FN:2189,_ZNSt3__117__compressed_pairIPP5valueRNS_9allocatorIS2_EEE6secondEv
FN:2194,_ZNKSt3__117__compressed_pairIPP5valueNS_9allocatorIS2_EEE6secondEv
FN:2194,_ZNKSt3__117__compressed_pairIPP8keyvalueNS_9allocatorIS2_EEE6secondEv
FNDA:2,_ZNSt3__116__to_raw_pointerIP5valueEEPT_S4_
FNDA:0,_ZNSt3__116__to_raw_pointerIP8keyvalueEEPT_S4_
FNDA:0,_ZNSt3__116allocator_traitsINS_9allocatorIP5valueEEE8allocateERS4_m
FNDA:0,_ZNSt3__116allocator_traitsINS_9allocatorIP8keyvalueEEE8allocateERS4_m
FNDA:1,_ZNSt3__116allocator_traitsINS_9allocatorIP5valueEEE10deallocateERS4_PS3_m
FNDA:0,_ZNSt3__116allocator_traitsINS_9allocatorIP8keyvalueEEE10deallocateERS4_PS3_m
FNDA:0,_ZNSt3__116allocator_traitsINS_9allocatorIP5valueEEE9constructIS3_JRKS3_EEEvRS4_PT_DpOT0_
FNDA:0,_ZNSt3__116allocator_traitsINS_9allocatorIP8keyvalueEEE9constructIS3_JRKS3_EEEvRS4_PT_DpOT0_
FNDA:2,_ZNSt3__116allocator_traitsINS_9allocatorIP5valueEEE7destroyIS3_EEvRS4_PT_
FNDA:0,_ZNSt3__116allocator_traitsINS_9allocatorIP8keyvalueEEE7destroyIS3_EEvRS4_PT_
FNDA:0,_ZNSt3__116allocator_traitsINS_9allocatorIP5valueEEE8max_sizeERKS4_
FNDA:0,_ZNSt3__116allocator_traitsINS_9allocatorIP8keyvalueEEE8max_sizeERKS4_
FNDA:0,_ZNSt3__116allocator_traitsINS_9allocatorIP5valueEEE20__construct_backwardIS3_EENS_9enable_ifIXaaoosr7is_sameIS4_NS1_IT_EEEE5valuentsr15__has_constructIS4_PS8_S8_EE5valuesr31is_trivially_move_constructibleIS8_EE5valueEvE4typeERS4_SA_SA_RSA_
FNDA:0,_ZNSt3__116allocator_traitsINS_9allocatorIP8keyvalueEEE20__construct_backwardIS3_EENS_9enable_ifIXaaoosr7is_sameIS4_NS1_IT_EEEE5valuentsr15__has_constructIS4_PS8_S8_EE5valuesr31is_trivially_move_constructibleIS8_EE5valueEvE4typeERS4_SA_SA_RSA_
FNDA:0,_ZNSt3__116allocator_traitsINS_9allocatorIP5valueEEE11__constructIS3_JRKS3_EEEvNS_17integral_constantIbLb1EEERS4_PT_DpOT0_
FNDA:0,_ZNSt3__116allocator_traitsINS_9allocatorIP8keyvalueEEE11__constructIS3_JRKS3_EEEvNS_17integral_constantIbLb1EEERS4_PT_DpOT0_
FNDA:2,_ZNSt3__116allocator_traitsINS_9allocatorIP5valueEEE9__destroyIS3_EEvNS_17integral_constantIbLb1EEERS4_PT_
FNDA:0,_ZNSt3__116allocator_traitsINS_9allocatorIP8keyvalueEEE9__destroyIS3_EEvNS_17integral_constantIbLb1EEERS4_PT_
FNDA:0,_ZNSt3__116allocator_traitsINS_9allocatorIP5valueEEE10__max_sizeENS_17integral_constantIbLb1EEERKS4_
FNDA:0,_ZNSt3__116allocator_traitsINS_9allocatorIP8keyvalueEEE10__max_sizeENS_17integral_constantIbLb1EEERKS4_
FNDA:5,_ZNSt3__19allocatorIP5valueEC2Ev
FNDA:5,_ZNSt3__19allocatorIP8keyvalueEC2Ev
FNDA:0,_ZNSt3__19allocatorIP5valueE8allocateEmPKv
FNDA:0,_ZNSt3__19allocatorIP8keyvalueE8allocateEmPKv
FNDA:1,_ZNSt3__19allocatorIP5valueE10deallocateEPS2_m
FNDA:0,_ZNSt3__19allocatorIP8keyvalueE10deallocateEPS2_m
FNDA:0,_ZNKSt3__19allocatorIP5valueE8max_sizeEv
FNDA:0,_ZNKSt3__19allocatorIP8keyvalueE8max_sizeEv
FNDA:0,_ZNSt3__19allocatorIP5valueE9constructIS2_JRKS2_EEEvPT_DpOT0_
FNDA:0,_ZNSt3__19allocatorIP8keyvalueE9constructIS2_JRKS2_EEEvPT_DpOT0_
FNDA:2,_ZNSt3__19allocatorIP5valueE7destroyEPS2_
FNDA:0,_ZNSt3__19allocatorIP8keyvalueE7destroyEPS2_
FNDA:5,_ZNSt3__122__compressed_pair_elemIPP5valueLi0ELb0EEC2IDnvEEOT_
FNDA:5,_ZNSt3__122__compressed_pair_elemIPP8keyvalueLi0ELb0EEC2IDnvEEOT_
FNDA:0,_ZNSt3__122__compressed_pair_elemIRNS_9allocatorIP5valueEELi1ELb0EEC2IS5_vEEOT_
FNDA:0,_ZNSt3__122__compressed_pair_elemIRNS_9allocatorIP8keyvalueEELi1ELb0EEC2IS5_vEEOT_
FNDA:0,_ZNSt3__122__compressed_pair_elemIPP5valueLi0ELb0EE5__getEv
FNDA:0,_ZNSt3__122__compressed_pair_elemIRNS_9allocatorIP5valueEELi1ELb0EE5__getEv
FNDA:0,_ZNSt3__122__compressed_pair_elemIPP8keyvalueLi0ELb0EE5__getEv
FNDA:0,_ZNSt3__122__compressed_pair_elemIRNS_9allocatorIP8keyvalueEELi1ELb0EE5__getEv
FNDA:1,_ZNKSt3__122__compressed_pair_elemIPP5valueLi0ELb0EE5__getEv
FNDA:0,_ZNKSt3__122__compressed_pair_elemIPP8keyvalueLi0ELb0EE5__getEv
FNDA:5,_ZNSt3__122__compressed_pair_elemINS_9allocatorIP5valueEELi1ELb1EEC2Ev
FNDA:5,_ZNSt3__122__compressed_pair_elemINS_9allocatorIP8keyvalueEELi1ELb1EEC2Ev
FNDA:3,_ZNSt3__122__compressed_pair_elemINS_9allocatorIP5valueEELi1ELb1EE5__getEv
FNDA:0,_ZNSt3__122__compressed_pair_elemINS_9allocatorIP8keyvalueEELi1ELb1EE5__getEv
FNDA:0,_ZNKSt3__122__compressed_pair_elemINS_9allocatorIP5valueEELi1ELb1EE5__getEv
FNDA:0,_ZNKSt3__122__compressed_pair_elemINS_9allocatorIP8keyvalueEELi1ELb1EE5__getEv
FNDA:5,_ZNSt3__117__compressed_pairIPP5valueNS_9allocatorIS2_EEEC1IDnLb1EEEOT_
FNDA:5,_ZNSt3__117__compressed_pairIPP5valueNS_9allocatorIS2_EEEC2IDnLb1EEEOT_
FNDA:5,_ZNSt3__117__compressed_pairIPP8keyvalueNS_9allocatorIS2_EEEC1IDnLb1EEEOT_
FNDA:5,_ZNSt3__117__compressed_pairIPP8keyvalueNS_9allocatorIS2_EEEC2IDnLb1EEEOT_
FNDA:0,_ZNSt3__117__compressed_pairIPP5valueRNS_9allocatorIS2_EEEC1IDnS6_EEOT_OT0_
FNDA:0,_ZNSt3__117__compressed_pairIPP5valueRNS_9allocatorIS2_EEEC2IDnS6_EEOT_OT0_
FNDA:0,_ZNSt3__117__compressed_pairIPP8keyvalueRNS_9allocatorIS2_EEEC1IDnS6_EEOT_OT0_
FNDA:0,_ZNSt3__117__compressed_pairIPP8keyvalueRNS_9allocatorIS2_EEEC2IDnS6_EEOT_OT0_
FNDA:0,_ZNSt3__117__compressed_pairIPP5valueNS_9allocatorIS2_EEE5firstEv
FNDA:0,_ZNSt3__117__compressed_pairIPP5valueRNS_9allocatorIS2_EEE5firstEv
FNDA:0,_ZNSt3__117__compressed_pairIPP8keyvalueNS_9allocatorIS2_EEE5firstEv
FNDA:0,_ZNSt3__117__compressed_pairIPP8keyvalueRNS_9allocatorIS2_EEE5firstEv
FNDA:1,_ZNKSt3__117__compressed_pairIPP5valueNS_9allocatorIS2_EEE5firstEv
FNDA:0,_ZNKSt3__117__compressed_pairIPP8keyvalueNS_9allocatorIS2_EEE5firstEv
FNDA:0,_ZNKSt3__117__compressed_pairIPP5valueRNS_9allocatorIS2_EEE5firstEv
FNDA:0,_ZNKSt3__117__compressed_pairIPP8keyvalueRNS_9allocatorIS2_EEE5firstEv
FNDA:3,_ZNSt3__117__compressed_pairIPP5valueNS_9allocatorIS2_EEE6secondEv
FNDA:0,_ZNSt3__117__compressed_pairIPP8keyvalueNS_9allocatorIS2_EEE6secondEv
FNDA:0,_ZNSt3__117__compressed_pairIPP5valueRNS_9allocatorIS2_EEE6secondEv
FNDA:0,_ZNSt3__117__compressed_pairIPP8keyvalueRNS_9allocatorIS2_EEE6secondEv
FNDA:0,_ZNKSt3__117__compressed_pairIPP5valueNS_9allocatorIS2_EEE6secondEv
FNDA:0,_ZNKSt3__117__compressed_pairIPP8keyvalueNS_9allocatorIS2_EEE6secondEv
FNF:70
FNH:20
DA:1097,2
DA:1502,0
DA:1510,1
DA:1516,0
DA:1517,0
DA:1550,2
DA:1554,0
DA:1649,0
DA:1650,0
DA:1651,0
DA:1652,0
DA:1653,0
DA:1670,0
DA:1682,2
DA:1692,0
DA:1736,10
DA:1744,0
DA:1745,0
DA:1747,0
DA:1750,2
DA:1752,0
DA:1759,0
DA:1760,0
DA:1814,2
DA:2051,10
DA:2064,0
DA:2066,1
DA:2080,10
DA:2102,3
DA:2104,0
DA:2141,20
DA:2151,0
DA:2180,0
DA:2185,1
DA:2190,3
DA:2195,0
LF:36
LH:14
end_of_record
SF:/Library/Developer/CommandLineTools/usr/include/c++/v1/new
FN:222,_ZNSt3__110__allocateEm
FN:230,_ZNSt3__119__libcpp_deallocateEPv
FNDA:0,_ZNSt3__110__allocateEm
FNDA:1,_ZNSt3__119__libcpp_deallocateEPv
FNF:2
FNH:1
DA:226,0
DA:234,1
DA:236,1
LF:3
LH:2
end_of_record
SF:/Library/Developer/CommandLineTools/usr/include/c++/v1/stdexcept
FN:136,_ZNSt12length_errorC2EPKc
FN:136,_ZNSt12length_errorC1EPKc
FN:222,_ZNSt3__120__throw_length_errorEPKc
FNDA:0,_ZNSt12length_errorC1EPKc
FNDA:0,_ZNSt12length_errorC2EPKc
FNDA:0,_ZNSt3__120__throw_length_errorEPKc
FNF:3
FNH:0
DA:136,0
DA:225,0
DA:230,0
LF:3
LH:0
end_of_record
SF:/Library/Developer/CommandLineTools/usr/include/c++/v1/type_traits
FN:2210,_ZNSt3__14moveIRPP8keyvalueEEONS_16remove_referenceIT_E4typeEOS6_
FN:2210,_ZNSt3__14moveIRPP5valueEEONS_16remove_referenceIT_E4typeEOS6_
FN:2219,_ZNSt3__17forwardIRKP5valueEEOT_RNS_16remove_referenceIS5_E4typeE
FN:2219,_ZNSt3__17forwardIRKP8keyvalueEEOT_RNS_16remove_referenceIS5_E4typeE
FN:2219,_ZNSt3__17forwardIDnEEOT_RNS_16remove_referenceIS1_E4typeE
FN:2219,_ZNSt3__17forwardIRNS_9allocatorIP8keyvalueEEEEOT_RNS_16remove_referenceIS6_E4typeE
FN:2219,_ZNSt3__17forwardIRNS_9allocatorIP5valueEEEEOT_RNS_16remove_referenceIS6_E4typeE
FN:4454,_ZNSt3__14swapIPP8keyvalueEENS_9enable_ifIXaasr21is_move_constructibleIT_EE5valuesr18is_move_assignableIS5_EE5valueEvE4typeERS5_S8_
FN:4454,_ZNSt3__14swapIPP5valueEENS_9enable_ifIXaasr21is_move_constructibleIT_EE5valuesr18is_move_assignableIS5_EE5valueEvE4typeERS5_S8_
FNDA:0,_ZNSt3__14moveIRPP5valueEEONS_16remove_referenceIT_E4typeEOS6_
FNDA:0,_ZNSt3__14moveIRPP8keyvalueEEONS_16remove_referenceIT_E4typeEOS6_
FNDA:20,_ZNSt3__17forwardIDnEEOT_RNS_16remove_referenceIS1_E4typeE
FNDA:0,_ZNSt3__17forwardIRKP5valueEEOT_RNS_16remove_referenceIS5_E4typeE
FNDA:0,_ZNSt3__17forwardIRNS_9allocatorIP5valueEEEEOT_RNS_16remove_referenceIS6_E4typeE
FNDA:0,_ZNSt3__17forwardIRKP8keyvalueEEOT_RNS_16remove_referenceIS5_E4typeE
FNDA:0,_ZNSt3__17forwardIRNS_9allocatorIP8keyvalueEEEEOT_RNS_16remove_referenceIS6_E4typeE
FNDA:0,_ZNSt3__14swapIPP5valueEENS_9enable_ifIXaasr21is_move_constructibleIT_EE5valuesr18is_move_assignableIS5_EE5valueEvE4typeERS5_S8_
FNDA:0,_ZNSt3__14swapIPP8keyvalueEENS_9enable_ifIXaasr21is_move_constructibleIT_EE5valuesr18is_move_assignableIS5_EE5valueEvE4typeERS5_S8_
FNF:9
FNH:1
DA:2213,0
DA:2221,20
DA:4457,0
DA:4458,0
DA:4459,0
DA:4460,0
LF:6
LH:1
end_of_record
SF:/Library/Developer/CommandLineTools/usr/include/c++/v1/vector
FN:294,_ZNSt3__120__vector_base_commonILb1EEC2Ev
FN:337,_ZNSt3__113__vector_baseIP5valueNS_9allocatorIS2_EEE7__allocEv
FN:337,_ZNSt3__113__vector_baseIP8keyvalueNS_9allocatorIS2_EEE7__allocEv
FN:340,_ZNKSt3__113__vector_baseIP5valueNS_9allocatorIS2_EEE7__allocEv
FN:340,_ZNKSt3__113__vector_baseIP8keyvalueNS_9allocatorIS2_EEE7__allocEv
FN:343,_ZNSt3__113__vector_baseIP8keyvalueNS_9allocatorIS2_EEE9__end_capEv
FN:343,_ZNSt3__113__vector_baseIP5valueNS_9allocatorIS2_EEE9__end_capEv
FN:346,_ZNKSt3__113__vector_baseIP5valueNS_9allocatorIS2_EEE9__end_capEv
FN:346,_ZNKSt3__113__vector_baseIP8keyvalueNS_9allocatorIS2_EEE9__end_capEv
FN:356,_ZNSt3__113__vector_baseIP5valueNS_9allocatorIS2_EEE5clearEv
FN:356,_ZNSt3__113__vector_baseIP8keyvalueNS_9allocatorIS2_EEE5clearEv
FN:358,_ZNKSt3__113__vector_baseIP8keyvalueNS_9allocatorIS2_EEE8capacityEv
FN:358,_ZNKSt3__113__vector_baseIP5valueNS_9allocatorIS2_EEE8capacityEv
FN:409,_ZNSt3__113__vector_baseIP5valueNS_9allocatorIS2_EEE17__destruct_at_endEPS2_
FN:409,_ZNSt3__113__vector_baseIP8keyvalueNS_9allocatorIS2_EEE17__destruct_at_endEPS2_
FN:419,_ZNSt3__113__vector_baseIP5valueNS_9allocatorIS2_EEEC2Ev
FN:419,_ZNSt3__113__vector_baseIP8keyvalueNS_9allocatorIS2_EEEC2Ev
FN:437,_ZNSt3__113__vector_baseIP5valueNS_9allocatorIS2_EEED2Ev
FN:437,_ZNSt3__113__vector_baseIP8keyvalueNS_9allocatorIS2_EEED2Ev
FN:447,_ZNSt3__16vectorIP5valueNS_9allocatorIS2_EEED1Ev
FN:447,_ZNSt3__16vectorIP5valueNS_9allocatorIS2_EEED2Ev
FN:447,_ZNSt3__16vectorIP8keyvalueNS_9allocatorIS2_EEED2Ev
FN:447,_ZNSt3__16vectorIP8keyvalueNS_9allocatorIS2_EEED1Ev
FN:473,_ZNSt3__16vectorIP8keyvalueNS_9allocatorIS2_EEEC1Ev
FN:473,_ZNSt3__16vectorIP5valueNS_9allocatorIS2_EEEC2Ev
FN:473,_ZNSt3__16vectorIP5valueNS_9allocatorIS2_EEEC1Ev
FN:473,_ZNSt3__16vectorIP8keyvalueNS_9allocatorIS2_EEEC2Ev
FN:632,_ZNKSt3__16vectorIP5valueNS_9allocatorIS2_EEE4sizeEv
FN:632,_ZNKSt3__16vectorIP8keyvalueNS_9allocatorIS2_EEE4sizeEv
FN:635,_ZNKSt3__16vectorIP5valueNS_9allocatorIS2_EEE8capacityEv
FN:635,_ZNKSt3__16vectorIP8keyvalueNS_9allocatorIS2_EEE8capacityEv
FN:674,_ZNKSt3__16vectorIP8keyvalueNS_9allocatorIS2_EEE4dataEv
FN:674,_ZNKSt3__16vectorIP5valueNS_9allocatorIS2_EEE4dataEv
FN:827,_ZNKSt3__16vectorIP5valueNS_9allocatorIS2_EEE31__annotate_contiguous_containerEPKvS7_S7_S7_
FN:827,_ZNKSt3__16vectorIP8keyvalueNS_9allocatorIS2_EEE31__annotate_contiguous_containerEPKvS7_S7_S7_
FN:831,_ZNKSt3__16vectorIP8keyvalueNS_9allocatorIS2_EEE14__annotate_newEm
FN:831,_ZNKSt3__16vectorIP5valueNS_9allocatorIS2_EEE14__annotate_newEm
FN:837,_ZNKSt3__16vectorIP5valueNS_9allocatorIS2_EEE17__annotate_deleteEv
FN:837,_ZNKSt3__16vectorIP8keyvalueNS_9allocatorIS2_EEE17__annotate_deleteEv
FN:875,_ZNSt3__16vectorIP8keyvalueNS_9allocatorIS2_EEE24__RAII_IncreaseAnnotatorC1ERKS5_m
FN:875,_ZNSt3__16vectorIP5valueNS_9allocatorIS2_EEE24__RAII_IncreaseAnnotatorC1ERKS5_m
FN:875,_ZNSt3__16vectorIP5valueNS_9allocatorIS2_EEE24__RAII_IncreaseAnnotatorC2ERKS5_m
FN:875,_ZNSt3__16vectorIP8keyvalueNS_9allocatorIS2_EEE24__RAII_IncreaseAnnotatorC2ERKS5_m
FN:876,_ZNSt3__16vectorIP5valueNS_9allocatorIS2_EEE24__RAII_IncreaseAnnotator6__doneEv
FN:876,_ZNSt3__16vectorIP8keyvalueNS_9allocatorIS2_EEE24__RAII_IncreaseAnnotator6__doneEv
FN:884,_ZNSt3__16vectorIP8keyvalueNS_9allocatorIS2_EEE26__swap_out_circular_bufferERNS_14__split_bufferIS2_RS4_EE
FN:884,_ZNSt3__16vectorIP5valueNS_9allocatorIS2_EEE26__swap_out_circular_bufferERNS_14__split_bufferIS2_RS4_EE
FN:945,_ZNKSt3__16vectorIP5valueNS_9allocatorIS2_EEE8max_sizeEv
FN:945,_ZNKSt3__16vectorIP8keyvalueNS_9allocatorIS2_EEE8max_sizeEv
FN:955,_ZNKSt3__16vectorIP5valueNS_9allocatorIS2_EEE11__recommendEm
FN:955,_ZNKSt3__16vectorIP8keyvalueNS_9allocatorIS2_EEE11__recommendEm
FN:1490,_ZNSt3__16vectorIP5valueNS_9allocatorIS2_EEEixEm
FN:1490,_ZNSt3__16vectorIP8keyvalueNS_9allocatorIS2_EEEixEm
FN:1561,_ZNSt3__16vectorIP8keyvalueNS_9allocatorIS2_EEE21__push_back_slow_pathIRKS2_EEvOT_
FN:1561,_ZNSt3__16vectorIP5valueNS_9allocatorIS2_EEE21__push_back_slow_pathIRKS2_EEvOT_
FN:1577,_ZNSt3__16vectorIP8keyvalueNS_9allocatorIS2_EEE9push_backERKS2_
FN:1577,_ZNSt3__16vectorIP5valueNS_9allocatorIS2_EEE9push_backERKS2_
FN:2095,_ZNSt3__16vectorIP8keyvalueNS_9allocatorIS2_EEE26__invalidate_all_iteratorsEv
FN:2095,_ZNSt3__16vectorIP5valueNS_9allocatorIS2_EEE26__invalidate_all_iteratorsEv
FNDA:10,_ZNSt3__120__vector_base_commonILb1EEC2Ev
FNDA:3,_ZNSt3__113__vector_baseIP5valueNS_9allocatorIS2_EEE7__allocEv
FNDA:0,_ZNSt3__113__vector_baseIP8keyvalueNS_9allocatorIS2_EEE7__allocEv
FNDA:0,_ZNKSt3__113__vector_baseIP5valueNS_9allocatorIS2_EEE7__allocEv
FNDA:0,_ZNKSt3__113__vector_baseIP8keyvalueNS_9allocatorIS2_EEE7__allocEv
FNDA:0,_ZNSt3__113__vector_baseIP5valueNS_9allocatorIS2_EEE9__end_capEv
FNDA:0,_ZNSt3__113__vector_baseIP8keyvalueNS_9allocatorIS2_EEE9__end_capEv
FNDA:1,_ZNKSt3__113__vector_baseIP5valueNS_9allocatorIS2_EEE9__end_capEv
FNDA:0,_ZNKSt3__113__vector_baseIP8keyvalueNS_9allocatorIS2_EEE9__end_capEv
FNDA:1,_ZNSt3__113__vector_baseIP5valueNS_9allocatorIS2_EEE5clearEv
FNDA:0,_ZNSt3__113__vector_baseIP8keyvalueNS_9allocatorIS2_EEE5clearEv
FNDA:1,_ZNKSt3__113__vector_baseIP5valueNS_9allocatorIS2_EEE8capacityEv
FNDA:0,_ZNKSt3__113__vector_baseIP8keyvalueNS_9allocatorIS2_EEE8capacityEv
FNDA:1,_ZNSt3__113__vector_baseIP5valueNS_9allocatorIS2_EEE17__destruct_at_endEPS2_
FNDA:0,_ZNSt3__113__vector_baseIP8keyvalueNS_9allocatorIS2_EEE17__destruct_at_endEPS2_
FNDA:5,_ZNSt3__113__vector_baseIP5valueNS_9allocatorIS2_EEEC2Ev
FNDA:5,_ZNSt3__113__vector_baseIP8keyvalueNS_9allocatorIS2_EEEC2Ev
FNDA:2,_ZNSt3__113__vector_baseIP5valueNS_9allocatorIS2_EEED2Ev
FNDA:0,_ZNSt3__113__vector_baseIP8keyvalueNS_9allocatorIS2_EEED2Ev
FNDA:2,_ZNSt3__16vectorIP5valueNS_9allocatorIS2_EEED1Ev
FNDA:2,_ZNSt3__16vectorIP5valueNS_9allocatorIS2_EEED2Ev
FNDA:0,_ZNSt3__16vectorIP8keyvalueNS_9allocatorIS2_EEED1Ev
FNDA:0,_ZNSt3__16vectorIP8keyvalueNS_9allocatorIS2_EEED2Ev
FNDA:5,_ZNSt3__16vectorIP5valueNS_9allocatorIS2_EEEC1Ev
FNDA:5,_ZNSt3__16vectorIP5valueNS_9allocatorIS2_EEEC2Ev
FNDA:5,_ZNSt3__16vectorIP8keyvalueNS_9allocatorIS2_EEEC1Ev
FNDA:5,_ZNSt3__16vectorIP8keyvalueNS_9allocatorIS2_EEEC2Ev
FNDA:40,_ZNKSt3__16vectorIP8keyvalueNS_9allocatorIS2_EEE4sizeEv
FNDA:7,_ZNKSt3__16vectorIP5valueNS_9allocatorIS2_EEE4sizeEv
FNDA:0,_ZNKSt3__16vectorIP5valueNS_9allocatorIS2_EEE8capacityEv
FNDA:0,_ZNKSt3__16vectorIP8keyvalueNS_9allocatorIS2_EEE8capacityEv
FNDA:0,_ZNKSt3__16vectorIP5valueNS_9allocatorIS2_EEE4dataEv
FNDA:0,_ZNKSt3__16vectorIP8keyvalueNS_9allocatorIS2_EEE4dataEv
FNDA:0,_ZNKSt3__16vectorIP5valueNS_9allocatorIS2_EEE31__annotate_contiguous_containerEPKvS7_S7_S7_
FNDA:0,_ZNKSt3__16vectorIP8keyvalueNS_9allocatorIS2_EEE31__annotate_contiguous_containerEPKvS7_S7_S7_
FNDA:0,_ZNKSt3__16vectorIP5valueNS_9allocatorIS2_EEE14__annotate_newEm
FNDA:0,_ZNKSt3__16vectorIP8keyvalueNS_9allocatorIS2_EEE14__annotate_newEm
FNDA:0,_ZNKSt3__16vectorIP5valueNS_9allocatorIS2_EEE17__annotate_deleteEv
FNDA:0,_ZNKSt3__16vectorIP8keyvalueNS_9allocatorIS2_EEE17__annotate_deleteEv
FNDA:0,_ZNSt3__16vectorIP5valueNS_9allocatorIS2_EEE24__RAII_IncreaseAnnotatorC1ERKS5_m
FNDA:0,_ZNSt3__16vectorIP5valueNS_9allocatorIS2_EEE24__RAII_IncreaseAnnotatorC2ERKS5_m
FNDA:0,_ZNSt3__16vectorIP8keyvalueNS_9allocatorIS2_EEE24__RAII_IncreaseAnnotatorC1ERKS5_m
FNDA:0,_ZNSt3__16vectorIP8keyvalueNS_9allocatorIS2_EEE24__RAII_IncreaseAnnotatorC2ERKS5_m
FNDA:0,_ZNSt3__16vectorIP5valueNS_9allocatorIS2_EEE24__RAII_IncreaseAnnotator6__doneEv
FNDA:0,_ZNSt3__16vectorIP8keyvalueNS_9allocatorIS2_EEE24__RAII_IncreaseAnnotator6__doneEv
FNDA:0,_ZNSt3__16vectorIP5valueNS_9allocatorIS2_EEE26__swap_out_circular_bufferERNS_14__split_bufferIS2_RS4_EE
FNDA:0,_ZNSt3__16vectorIP8keyvalueNS_9allocatorIS2_EEE26__swap_out_circular_bufferERNS_14__split_bufferIS2_RS4_EE
FNDA:0,_ZNKSt3__16vectorIP5valueNS_9allocatorIS2_EEE8max_sizeEv
FNDA:0,_ZNKSt3__16vectorIP8keyvalueNS_9allocatorIS2_EEE8max_sizeEv
FNDA:0,_ZNKSt3__16vectorIP5valueNS_9allocatorIS2_EEE11__recommendEm
FNDA:0,_ZNKSt3__16vectorIP8keyvalueNS_9allocatorIS2_EEE11__recommendEm
FNDA:46,_ZNSt3__16vectorIP8keyvalueNS_9allocatorIS2_EEEixEm
FNDA:3,_ZNSt3__16vectorIP5valueNS_9allocatorIS2_EEEixEm
FNDA:0,_ZNSt3__16vectorIP5valueNS_9allocatorIS2_EEE21__push_back_slow_pathIRKS2_EEvOT_
FNDA:0,_ZNSt3__16vectorIP8keyvalueNS_9allocatorIS2_EEE21__push_back_slow_pathIRKS2_EEvOT_
FNDA:0,_ZNSt3__16vectorIP5valueNS_9allocatorIS2_EEE9push_backERKS2_
FNDA:0,_ZNSt3__16vectorIP8keyvalueNS_9allocatorIS2_EEE9push_backERKS2_
FNDA:0,_ZNSt3__16vectorIP5valueNS_9allocatorIS2_EEE26__invalidate_all_iteratorsEv
FNDA:0,_ZNSt3__16vectorIP8keyvalueNS_9allocatorIS2_EEE26__invalidate_all_iteratorsEv
FNF:59
FNH:19
DA:294,10
DA:338,3
DA:341,0
DA:344,0
DA:347,1
DA:350,10
DA:356,1
DA:359,1
DA:411,1
DA:412,6
DA:413,2
DA:414,1
DA:415,1
DA:421,10
DA:422,10
DA:423,10
DA:424,10
DA:425,10
DA:439,2
DA:441,1
DA:442,1
DA:443,1
DA:444,2
DA:447,4
DA:473,10
DA:474,20
DA:478,20
DA:633,47
DA:636,0
DA:675,0
DA:828,0
DA:832,0
DA:833,0
DA:834,0
DA:838,0
DA:839,0
DA:840,0
DA:875,0
DA:876,0
DA:886,0
DA:887,0
DA:888,0
DA:889,0
DA:890,0
DA:891,0
DA:892,0
DA:893,0
DA:894,0
DA:947,0
DA:948,0
DA:957,0
DA:958,0
DA:959,0
DA:960,0
DA:961,0
DA:962,0
DA:963,0
DA:964,0
DA:1493,49
DA:1566,0
DA:1567,0
DA:1569,0
DA:1570,0
DA:1571,0
DA:1572,0
DA:1579,0
DA:1581,0
DA:1582,0
DA:1583,0
DA:1584,0
DA:1585,0
DA:1586,0
DA:1588,0
DA:1589,0
DA:2100,0
LF:75
LH:27
end_of_record
SF:/Library/Developer/CommandLineTools/usr/include/c++/v1/__split_buffer
DA:56,18
DA:58,12
DA:59,4
DA:88,6
DA:91,4
DA:141,6
DA:295,28
DA:296,8
DA:297,6
DA:309,6
DA:310,12
DA:311,18
DA:312,6
DA:313,6
DA:314,12
DA:340,6
DA:341,6
DA:342,6
DA:343,8
DA:344,12
LF:20
LH:20
end_of_record
SF:/Library/Developer/CommandLineTools/usr/include/c++/v1/algorithm
DA:719,12
DA:2646,18
DA:2654,6
DA:2711,18
DA:2719,6
LF:5
LH:5
end_of_record
SF:/Users/siwangqishi/Desktop/learn/learnunix/c++gtest/json/json.cpp
FN:3,_Z14json_get_valuePK5valuePKc
FN:16,_Z14json_get_indexPK5valuej
FN:27,_Z12json_get_intPK5valuePKci
FN:36,_Z13json_get_boolPK5valuePKc
FN:45,_Z12json_get_strPK5valuePKcS3_
FN:55,_Z17json_new_keyvaluePKcP5value
FN:64,_Z12json_new_inti
FN:71,_Z13json_new_boolb
FN:78,_Z12json_new_strPc
FN:86,_Z14json_new_arrayv
FN:93,_Z15json_new_objectv
FN:100,_Z12json_set_intP5valuePKci
FN:113,_Z13json_set_boolP5valuePKcb
FN:123,_Z12json_set_strP5valuePKcS2_
FN:149,_Z14json_add_valuePK5value
FN:204,_Z11json_createv
FN:213,_Z9json_freeP5value
FNDA:15,_Z14json_get_valuePK5valuePKc
FNDA:2,_Z14json_get_indexPK5valuej
FNDA:2,_Z12json_get_intPK5valuePKci
FNDA:2,_Z13json_get_boolPK5valuePKc
FNDA:2,_Z12json_get_strPK5valuePKcS3_
FNDA:5,_Z17json_new_keyvaluePKcP5value
FNDA:4,_Z12json_new_inti
FNDA:4,_Z13json_new_boolb
FNDA:3,_Z12json_new_strPc
FNDA:4,_Z14json_new_arrayv
FNDA:4,_Z15json_new_objectv
FNDA:1,_Z12json_set_intP5valuePKci
FNDA:1,_Z13json_set_boolP5valuePKcb
FNDA:1,_Z12json_set_strP5valuePKcS2_
FNDA:5,_Z14json_add_valuePK5value
FNDA:1,_Z11json_createv
FNDA:10,_Z9json_freeP5value
FNF:17
FNH:17
DA:5,30
DA:6,30
DA:7,30
DA:8,30
DA:9,74
DA:11,34
DA:12,12
DA:13,22
DA:14,3
DA:15,15
DA:18,4
DA:19,4
DA:20,4
DA:21,4
DA:22,2
DA:23,1
DA:24,1
DA:25,2
DA:29,4
DA:30,4
DA:31,2
DA:32,3
DA:33,1
DA:34,1
DA:35,2
DA:38,4
DA:39,4
DA:40,2
DA:41,3
DA:42,1
DA:43,1
DA:44,2
DA:47,4
DA:48,4
DA:49,2
DA:50,3
DA:51,1
DA:52,1
DA:53,2
DA:57,10
DA:58,10
DA:59,5
DA:60,5
DA:61,5
DA:62,5
DA:66,4
DA:67,4
DA:68,4
DA:69,4
DA:73,4
DA:74,4
DA:75,4
DA:76,4
DA:80,6
DA:81,3
DA:82,3
DA:83,3
DA:84,3
DA:88,8
DA:89,4
DA:90,4
DA:91,4
DA:95,8
DA:96,4
DA:97,4
DA:98,4
DA:102,2
DA:103,2
DA:104,1
DA:105,1
DA:106,1
DA:107,1
DA:108,0
DA:109,1
DA:110,1
DA:111,1
DA:115,2
DA:116,2
DA:117,1
DA:118,1
DA:119,0
DA:120,1
DA:121,1
DA:122,1
DA:125,2
DA:126,2
DA:127,1
DA:128,1
DA:129,0
DA:130,1
DA:131,1
DA:132,1
DA:151,5
DA:152,5
DA:153,5
DA:154,5
DA:158,1
DA:159,1
DA:160,1
DA:164,1
DA:165,1
DA:166,1
DA:170,1
DA:171,1
DA:172,1
DA:173,1
DA:174,1
DA:175,1
DA:179,1
DA:180,1
DA:181,2
DA:183,0
DA:184,0
DA:185,1
DA:189,1
DA:190,1
DA:191,2
DA:193,0
DA:194,0
DA:195,1
DA:198,0
DA:199,0
DA:202,5
DA:206,2
DA:207,1
DA:208,1
DA:209,1
DA:210,1
DA:215,10
DA:216,10
DA:218,0
DA:219,6
DA:220,6
DA:221,3
DA:223,2
DA:225,0
DA:226,0
DA:228,8
DA:230,2
DA:231,2
DA:232,4
DA:233,4
DA:234,2
DA:237,3
DA:239,2
DA:240,1
DA:242,4
DA:244,0
DA:245,0
DA:246,4
DA:247,4
DA:248,2
DA:251,0
DA:252,0
DA:255,10
DA:256,10
DA:257,10
DA:258,10
LF:158
LH:142
end_of_record
SF:/Users/siwangqishi/Desktop/learn/learnunix/c++gtest/json/json.h
FN:19,_ZN5ArrayD2Ev
FN:19,_ZN5ArrayC2Ev
FN:19,_ZN5ArrayC1Ev
FN:19,_ZN5ArrayD1Ev
FN:24,_ZN6objectD1Ev
FN:24,_ZN6objectD2Ev
FN:24,_ZN6objectC1Ev
FN:24,_ZN6objectC2Ev
FNDA:5,_ZN5ArrayC1Ev
FNDA:2,_ZN5ArrayD1Ev
FNDA:5,_ZN5ArrayC2Ev
FNDA:2,_ZN5ArrayD2Ev
FNDA:5,_ZN6objectC1Ev
FNDA:0,_ZN6objectD1Ev
FNDA:5,_ZN6objectC2Ev
FNDA:0,_ZN6objectD2Ev
FNF:8
FNH:6
DA:19,14
DA:24,10
LF:2
LH:2
end_of_record
SF:/Library/Developer/CommandLineTools/usr/include/c++/v1/limits
DA:213,12
DA:450,12
LF:2
LH:2
end_of_record
SF:/Library/Developer/CommandLineTools/usr/include/c++/v1/memory
DA:979,0
DA:1097,68
DA:1502,6
DA:1510,5
DA:1516,14
DA:1517,14
DA:1550,13
DA:1554,12
DA:1649,6
DA:1650,6
DA:1651,6
DA:1652,4
DA:1653,6
DA:1670,7
DA:1682,13
DA:1692,6
DA:1736,0
DA:1744,6
DA:1745,0
DA:1747,6
DA:1750,10
DA:1752,12
DA:1759,7
DA:1760,7
DA:1814,13
DA:2043,0
DA:2051,12
DA:2064,43
DA:2066,35
DA:2080,0
DA:2102,19
DA:2104,6
DA:2134,0
DA:2151,12
DA:2180,25
DA:2185,35
DA:2190,37
DA:2195,6
LF:38
LH:32
end_of_record
SF:/Library/Developer/CommandLineTools/usr/include/c++/v1/new
DA:226,6
DA:234,5
DA:236,5
LF:3
LH:3
end_of_record
SF:/Library/Developer/CommandLineTools/usr/include/c++/v1/stdexcept
DA:136,0
DA:225,0
DA:230,0
LF:3
LH:0
end_of_record
SF:/Library/Developer/CommandLineTools/usr/include/c++/v1/type_traits
DA:439,0
DA:2213,61
DA:2221,51
DA:4457,18
DA:4458,18
DA:4459,18
DA:4460,18
LF:7
LH:6
end_of_record
SF:/Library/Developer/CommandLineTools/usr/include/c++/v1/vector
DA:338,19
DA:341,6
DA:344,13
DA:347,31
DA:356,1
DA:359,31
DA:411,1
DA:412,12
DA:413,5
DA:414,1
DA:415,1
DA:439,3
DA:441,1
DA:442,1
DA:443,1
DA:444,3
DA:447,6
DA:633,24
DA:636,30
DA:675,48
DA:828,12
DA:832,12
DA:833,6
DA:834,6
DA:838,12
DA:839,6
DA:840,6
DA:875,2
DA:876,1
DA:886,6
DA:887,6
DA:888,6
DA:889,6
DA:890,6
DA:891,6
DA:892,6
DA:893,6
DA:894,6
DA:947,18
DA:948,6
DA:957,6
DA:958,6
DA:959,0
DA:960,6
DA:961,6
DA:962,0
DA:963,6
DA:964,6
DA:1566,6
DA:1567,6
DA:1569,6
DA:1570,6
DA:1571,6
DA:1572,6
DA:1598,7
DA:1600,1
DA:1601,2
DA:1602,1
DA:1603,1
DA:1604,1
DA:1605,1
DA:1606,1
DA:1608,6
DA:1609,7
DA:2100,6
LF:65
LH:63
end_of_record
TN:
SF:/Library/Developer/CommandLineTools/usr/include/c++/v1/__locale
FN:210,_ZNSt3__19use_facetINS_5ctypeIcEEEERKT_RKNS_6localeE
FN:625,_ZNKSt3__15ctypeIcE5widenEc
FNDA:32,_ZNSt3__19use_facetINS_5ctypeIcEEEERKT_RKNS_6localeE
FNDA:32,_ZNKSt3__15ctypeIcE5widenEc
FNF:2
FNH:2
DA:212,32
DA:627,32
LF:2
LH:2
end_of_record
SF:/Library/Developer/CommandLineTools/usr/include/c++/v1/__split_buffer
FN:56,_ZNSt3__114__split_bufferIP5valueRNS_9allocatorIS2_EEE7__allocEv
FN:56,_ZNSt3__114__split_bufferIP8keyvalueRNS_9allocatorIS2_EEE7__allocEv
FN:58,_ZNSt3__114__split_bufferIP5valueRNS_9allocatorIS2_EEE9__end_capEv
FN:58,_ZNSt3__114__split_bufferIP8keyvalueRNS_9allocatorIS2_EEE9__end_capEv
FN:59,_ZNKSt3__114__split_bufferIP5valueRNS_9allocatorIS2_EEE9__end_capEv
FN:59,_ZNKSt3__114__split_bufferIP8keyvalueRNS_9allocatorIS2_EEE9__end_capEv
FN:87,_ZNSt3__114__split_bufferIP8keyvalueRNS_9allocatorIS2_EEE5clearEv
FN:87,_ZNSt3__114__split_bufferIP5valueRNS_9allocatorIS2_EEE5clearEv
FN:91,_ZNKSt3__114__split_bufferIP5valueRNS_9allocatorIS2_EEE8capacityEv
FN:91,_ZNKSt3__114__split_bufferIP8keyvalueRNS_9allocatorIS2_EEE8capacityEv
FN:140,_ZNSt3__114__split_bufferIP5valueRNS_9allocatorIS2_EEE17__destruct_at_endEPS2_
FN:140,_ZNSt3__114__split_bufferIP8keyvalueRNS_9allocatorIS2_EEE17__destruct_at_endEPS2_
FN:293,_ZNSt3__114__split_bufferIP5valueRNS_9allocatorIS2_EEE17__destruct_at_endEPS2_NS_17integral_constantIbLb0EEE
FN:293,_ZNSt3__114__split_bufferIP8keyvalueRNS_9allocatorIS2_EEE17__destruct_at_endEPS2_NS_17integral_constantIbLb0EEE
FN:308,_ZNSt3__114__split_bufferIP8keyvalueRNS_9allocatorIS2_EEEC1EmmS5_
FN:308,_ZNSt3__114__split_bufferIP8keyvalueRNS_9allocatorIS2_EEEC2EmmS5_
FN:308,_ZNSt3__114__split_bufferIP5valueRNS_9allocatorIS2_EEEC1EmmS5_
FN:308,_ZNSt3__114__split_bufferIP5valueRNS_9allocatorIS2_EEEC2EmmS5_
FN:339,_ZNSt3__114__split_bufferIP5valueRNS_9allocatorIS2_EEED2Ev
FN:339,_ZNSt3__114__split_bufferIP8keyvalueRNS_9allocatorIS2_EEED2Ev
FN:339,_ZNSt3__114__split_bufferIP5valueRNS_9allocatorIS2_EEED1Ev
FN:339,_ZNSt3__114__split_bufferIP8keyvalueRNS_9allocatorIS2_EEED1Ev
FNDA:14,_ZNSt3__114__split_bufferIP8keyvalueRNS_9allocatorIS2_EEE7__allocEv
FNDA:4,_ZNSt3__114__split_bufferIP5valueRNS_9allocatorIS2_EEE7__allocEv
FNDA:8,_ZNSt3__114__split_bufferIP8keyvalueRNS_9allocatorIS2_EEE9__end_capEv
FNDA:4,_ZNSt3__114__split_bufferIP5valueRNS_9allocatorIS2_EEE9__end_capEv
FNDA:3,_ZNKSt3__114__split_bufferIP8keyvalueRNS_9allocatorIS2_EEE9__end_capEv
FNDA:1,_ZNKSt3__114__split_bufferIP5valueRNS_9allocatorIS2_EEE9__end_capEv
FNDA:4,_ZNSt3__114__split_bufferIP8keyvalueRNS_9allocatorIS2_EEE5clearEv
FNDA:2,_ZNSt3__114__split_bufferIP5valueRNS_9allocatorIS2_EEE5clearEv
FNDA:3,_ZNKSt3__114__split_bufferIP8keyvalueRNS_9allocatorIS2_EEE8capacityEv
FNDA:1,_ZNKSt3__114__split_bufferIP5valueRNS_9allocatorIS2_EEE8capacityEv
FNDA:4,_ZNSt3__114__split_bufferIP8keyvalueRNS_9allocatorIS2_EEE17__destruct_at_endEPS2_
FNDA:2,_ZNSt3__114__split_bufferIP5valueRNS_9allocatorIS2_EEE17__destruct_at_endEPS2_
FNDA:4,_ZNSt3__114__split_bufferIP8keyvalueRNS_9allocatorIS2_EEE17__destruct_at_endEPS2_NS_17integral_constantIbLb0EEE
FNDA:2,_ZNSt3__114__split_bufferIP5valueRNS_9allocatorIS2_EEE17__destruct_at_endEPS2_NS_17integral_constantIbLb0EEE
FNDA:4,_ZNSt3__114__split_bufferIP8keyvalueRNS_9allocatorIS2_EEEC1EmmS5_
FNDA:4,_ZNSt3__114__split_bufferIP8keyvalueRNS_9allocatorIS2_EEEC2EmmS5_
FNDA:2,_ZNSt3__114__split_bufferIP5valueRNS_9allocatorIS2_EEEC1EmmS5_
FNDA:2,_ZNSt3__114__split_bufferIP5valueRNS_9allocatorIS2_EEEC2EmmS5_
FNDA:4,_ZNSt3__114__split_bufferIP8keyvalueRNS_9allocatorIS2_EEED1Ev
FNDA:4,_ZNSt3__114__split_bufferIP8keyvalueRNS_9allocatorIS2_EEED2Ev
FNDA:2,_ZNSt3__114__split_bufferIP5valueRNS_9allocatorIS2_EEED1Ev
FNDA:2,_ZNSt3__114__split_bufferIP5valueRNS_9allocatorIS2_EEED2Ev
FNF:22
FNH:22
DA:56,18
DA:58,12
DA:59,4
DA:88,6
DA:91,4
DA:141,6
DA:295,28
DA:296,8
DA:297,6
DA:309,6
DA:310,12
DA:311,18
DA:312,6
DA:313,6
DA:314,12
DA:340,6
DA:341,6
DA:342,6
DA:343,8
DA:344,12
LF:20
LH:20
end_of_record
SF:/Library/Developer/CommandLineTools/usr/include/c++/v1/__string
FN:217,_ZNSt3__111char_traitsIcE6lengthEPKc
FN:236,_ZNSt3__111char_traitsIcE11eq_int_typeEii
FN:238,_ZNSt3__111char_traitsIcE3eofEv
FNDA:109,_ZNSt3__111char_traitsIcE6lengthEPKc
FNDA:318,_ZNSt3__111char_traitsIcE11eq_int_typeEii
FNDA:367,_ZNSt3__111char_traitsIcE3eofEv
FNF:3
FNH:3
DA:217,109
DA:237,318
DA:239,734
LF:3
LH:3
end_of_record
SF:/Library/Developer/CommandLineTools/usr/include/c++/v1/algorithm
FN:719,_ZNKSt3__16__lessImmEclERKmS3_
FN:2644,_ZNSt3__13minImNS_6__lessImmEEEERKT_S5_S5_T0_
FN:2652,_ZNSt3__13minImEERKT_S3_S3_
FN:2709,_ZNSt3__13maxImNS_6__lessImmEEEERKT_S5_S5_T0_
FN:2717,_ZNSt3__13maxImEERKT_S3_S3_
FNDA:12,_ZNKSt3__16__lessImmEclERKmS3_
FNDA:6,_ZNSt3__13minImNS_6__lessImmEEEERKT_S5_S5_T0_
FNDA:6,_ZNSt3__13minImEERKT_S3_S3_
FNDA:6,_ZNSt3__13maxImNS_6__lessImmEEEERKT_S5_S5_T0_
FNDA:6,_ZNSt3__13maxImEERKT_S3_S3_
FNF:5
FNH:5
DA:719,12
DA:2646,18
DA:2654,6
DA:2711,18
DA:2719,6
LF:5
LH:5
end_of_record
SF:/Library/Developer/CommandLineTools/usr/include/c++/v1/ios
FN:340,_ZNKSt3__18ios_base5rdbufEv
FN:440,_ZNKSt3__18ios_base5flagsEv
FN:502,_ZNKSt3__18ios_base5widthEv
FN:509,_ZNSt3__18ios_base5widthEl
FN:527,_ZNSt3__18ios_base8setstateEj
FN:611,_ZNSt3__19basic_iosIcNS_11char_traitsIcEEE8setstateEj
FN:716,_ZNKSt3__19basic_iosIcNS_11char_traitsIcEEE5rdbufEv
FN:754,_ZNKSt3__19basic_iosIcNS_11char_traitsIcEEE5widenEc
FN:762,_ZNKSt3__19basic_iosIcNS_11char_traitsIcEEE4fillEv
FNDA:312,_ZNKSt3__18ios_base5rdbufEv
FNDA:312,_ZNKSt3__18ios_base5flagsEv
FNDA:312,_ZNKSt3__18ios_base5widthEv
FNDA:312,_ZNSt3__18ios_base5widthEl
FNDA:0,_ZNSt3__18ios_base8setstateEj
FNDA:0,_ZNSt3__19basic_iosIcNS_11char_traitsIcEEE8setstateEj
FNDA:312,_ZNKSt3__19basic_iosIcNS_11char_traitsIcEEE5rdbufEv
FNDA:32,_ZNKSt3__19basic_iosIcNS_11char_traitsIcEEE5widenEc
FNDA:312,_ZNKSt3__19basic_iosIcNS_11char_traitsIcEEE4fillEv
FNF:9
FNH:7
DA:340,312
DA:442,312
DA:504,312
DA:511,312
DA:512,312
DA:513,312
DA:529,0
DA:530,0
DA:611,0
DA:718,312
DA:756,96
DA:757,0
DA:764,312
DA:765,32
DA:766,312
LF:15
LH:11
end_of_record
SF:/Library/Developer/CommandLineTools/usr/include/c++/v1/iterator
FN:1031,_ZNSt3__119ostreambuf_iteratorIcNS_11char_traitsIcEEEC1ERNS_13basic_ostreamIcS2_EE
FN:1031,_ZNSt3__119ostreambuf_iteratorIcNS_11char_traitsIcEEEC2ERNS_13basic_ostreamIcS2_EE
FN:1044,_ZNKSt3__119ostreambuf_iteratorIcNS_11char_traitsIcEEE6failedEv
FNDA:312,_ZNSt3__119ostreambuf_iteratorIcNS_11char_traitsIcEEEC1ERNS_13basic_ostreamIcS2_EE
FNDA:312,_ZNSt3__119ostreambuf_iteratorIcNS_11char_traitsIcEEEC2ERNS_13basic_ostreamIcS2_EE
FNDA:312,_ZNKSt3__119ostreambuf_iteratorIcNS_11char_traitsIcEEE6failedEv
FNF:3
FNH:3
DA:1032,936
DA:1044,312
LF:2
LH:2
end_of_record
SF:/Library/Developer/CommandLineTools/usr/include/c++/v1/limits
FN:213,_ZNSt3__123__libcpp_numeric_limitsIlLb1EE3maxEv
FN:450,_ZNSt3__114numeric_limitsIlE3maxEv
FNDA:6,_ZNSt3__123__libcpp_numeric_limitsIlLb1EE3maxEv
FNDA:6,_ZNSt3__114numeric_limitsIlE3maxEv
FNF:2
FNH:2
DA:213,12
DA:450,12
LF:2
LH:2
end_of_record
SF:/Library/Developer/CommandLineTools/usr/include/c++/v1/locale
FN:1381,_ZNSt3__116__pad_and_outputIcNS_11char_traitsIcEEEENS_19ostreambuf_iteratorIT_T0_EES6_PKS4_S8_S8_RNS_8ios_baseES4_
FNDA:312,_ZNSt3__116__pad_and_outputIcNS_11char_traitsIcEEEENS_19ostreambuf_iteratorIT_T0_EES6_PKS4_S8_S8_RNS_8ios_baseES4_
FNF:1
FNH:1
DA:1385,312
DA:1386,0
DA:1387,312
DA:1388,312
DA:1389,312
DA:1390,0
DA:1392,312
DA:1393,312
DA:1394,312
DA:1396,0
DA:1398,0
DA:1399,0
DA:1401,0
DA:1402,312
DA:1404,0
DA:1405,0
DA:1407,0
DA:1408,0
DA:1410,0
DA:1411,312
DA:1412,312
DA:1414,312
DA:1416,0
DA:1417,0
DA:1419,312
DA:1420,312
DA:1421,312
DA:1422,312
LF:28
LH:15
end_of_record
SF:/Library/Developer/CommandLineTools/usr/include/c++/v1/memory
FN:977,_ZNSt3__114pointer_traitsIPKcE10pointer_toERS1_
FN:1095,_ZNSt3__116__to_raw_pointerIP5valueEEPT_S4_
FN:1095,_ZNSt3__116__to_raw_pointerIKcEEPT_S3_
FN:1095,_ZNSt3__116__to_raw_pointerIP8keyvalueEEPT_S4_
FN:1501,_ZNSt3__116allocator_traitsINS_9allocatorIP8keyvalueEEE8allocateERS4_m
FN:1501,_ZNSt3__116allocator_traitsINS_9allocatorIP5valueEEE8allocateERS4_m
FN:1509,_ZNSt3__116allocator_traitsINS_9allocatorIP8keyvalueEEE10deallocateERS4_PS3_m
FN:1509,_ZNSt3__116allocator_traitsINS_9allocatorIP5valueEEE10deallocateERS4_PS3_m
FN:1515,_ZNSt3__116allocator_traitsINS_9allocatorIP8keyvalueEEE9constructIS3_JS3_EEEvRS4_PT_DpOT0_
FN:1515,_ZNSt3__116allocator_traitsINS_9allocatorIP5valueEEE9constructIS3_JS3_EEEvRS4_PT_DpOT0_
FN:1549,_ZNSt3__116allocator_traitsINS_9allocatorIP8keyvalueEEE7destroyIS3_EEvRS4_PT_
FN:1549,_ZNSt3__116allocator_traitsINS_9allocatorIP5valueEEE7destroyIS3_EEvRS4_PT_
FN:1553,_ZNSt3__116allocator_traitsINS_9allocatorIP8keyvalueEEE8max_sizeERKS4_
FN:1553,_ZNSt3__116allocator_traitsINS_9allocatorIP5valueEEE8max_sizeERKS4_
FN:1647,_ZNSt3__116allocator_traitsINS_9allocatorIP5valueEEE20__construct_backwardIS3_EENS_9enable_ifIXaaoosr7is_sameIS4_NS1_IT_EEEE5valuentsr15__has_constructIS4_PS8_S8_EE5valuesr31is_trivially_move_constructibleIS8_EE5valueEvE4typeERS4_SA_SA_RSA_
FN:1647,_ZNSt3__116allocator_traitsINS_9allocatorIP8keyvalueEEE20__construct_backwardIS3_EENS_9enable_ifIXaaoosr7is_sameIS4_NS1_IT_EEEE5valuentsr15__has_constructIS4_PS8_S8_EE5valuesr31is_trivially_move_constructibleIS8_EE5valueEvE4typeERS4_SA_SA_RSA_
FN:1669,_ZNSt3__116allocator_traitsINS_9allocatorIP5valueEEE11__constructIS3_JS3_EEEvNS_17integral_constantIbLb1EEERS4_PT_DpOT0_
FN:1669,_ZNSt3__116allocator_traitsINS_9allocatorIP8keyvalueEEE11__constructIS3_JS3_EEEvNS_17integral_constantIbLb1EEERS4_PT_DpOT0_
FN:1681,_ZNSt3__116allocator_traitsINS_9allocatorIP8keyvalueEEE9__destroyIS3_EEvNS_17integral_constantIbLb1EEERS4_PT_
FN:1681,_ZNSt3__116allocator_traitsINS_9allocatorIP5valueEEE9__destroyIS3_EEvNS_17integral_constantIbLb1EEERS4_PT_
FN:1691,_ZNSt3__116allocator_traitsINS_9allocatorIP5valueEEE10__max_sizeENS_17integral_constantIbLb1EEERKS4_
FN:1691,_ZNSt3__116allocator_traitsINS_9allocatorIP8keyvalueEEE10__max_sizeENS_17integral_constantIbLb1EEERKS4_
FN:1736,_ZNSt3__19allocatorIcEC2Ev
FN:1742,_ZNSt3__19allocatorIP5valueE8allocateEmPKv
FN:1742,_ZNSt3__19allocatorIP8keyvalueE8allocateEmPKv
FN:1749,_ZNSt3__19allocatorIP5valueE10deallocateEPS2_m
FN:1749,_ZNSt3__19allocatorIP8keyvalueE10deallocateEPS2_m
FN:1751,_ZNKSt3__19allocatorIP5valueE8max_sizeEv
FN:1751,_ZNKSt3__19allocatorIP8keyvalueE8max_sizeEv
FN:1757,_ZNSt3__19allocatorIP8keyvalueE9constructIS2_JS2_EEEvPT_DpOT0_
FN:1757,_ZNSt3__19allocatorIP5valueE9constructIS2_JS2_EEEvPT_DpOT0_
FN:1814,_ZNSt3__19allocatorIP5valueE7destroyEPS2_
FN:1814,_ZNSt3__19allocatorIP8keyvalueE7destroyEPS2_
FN:2043,_ZNSt3__122__compressed_pair_elemINS_12basic_stringIcNS_11char_traitsIcEENS_9allocatorIcEEE5__repELi0ELb0EEC2Ev
FN:2050,_ZNSt3__122__compressed_pair_elemIRNS_9allocatorIP5valueEELi1ELb0EEC2IS5_vEEOT_
FN:2050,_ZNSt3__122__compressed_pair_elemIPP5valueLi0ELb0EEC2IDnvEEOT_
FN:2050,_ZNSt3__122__compressed_pair_elemIRNS_9allocatorIP8keyvalueEELi1ELb0EEC2IS5_vEEOT_
FN:2050,_ZNSt3__122__compressed_pair_elemIPP8keyvalueLi0ELb0EEC2IDnvEEOT_
FN:2064,_ZNSt3__122__compressed_pair_elemIRNS_9allocatorIP5valueEELi1ELb0EE5__getEv
FN:2064,_ZNSt3__122__compressed_pair_elemIPP5valueLi0ELb0EE5__getEv
FN:2064,_ZNSt3__122__compressed_pair_elemIRNS_9allocatorIP8keyvalueEELi1ELb0EE5__getEv
FN:2064,_ZNSt3__122__compressed_pair_elemIPP8keyvalueLi0ELb0EE5__getEv
FN:2066,_ZNKSt3__122__compressed_pair_elemIPP5valueLi0ELb0EE5__getEv
FN:2066,_ZNKSt3__122__compressed_pair_elemIPP8keyvalueLi0ELb0EE5__getEv
FN:2066,_ZNKSt3__122__compressed_pair_elemINS_12basic_stringIcNS_11char_traitsIcEENS_9allocatorIcEEE5__repELi0ELb0EE5__getEv
FN:2080,_ZNSt3__122__compressed_pair_elemINS_9allocatorIcEELi1ELb1EEC2Ev
FN:2102,_ZNSt3__122__compressed_pair_elemINS_9allocatorIP5valueEELi1ELb1EE5__getEv
FN:2102,_ZNSt3__122__compressed_pair_elemINS_9allocatorIP8keyvalueEELi1ELb1EE5__getEv
FN:2104,_ZNKSt3__122__compressed_pair_elemINS_9allocatorIP5valueEELi1ELb1EE5__getEv
FN:2104,_ZNKSt3__122__compressed_pair_elemINS_9allocatorIP8keyvalueEELi1ELb1EE5__getEv
FN:2134,_ZNSt3__117__compressed_pairINS_12basic_stringIcNS_11char_traitsIcEENS_9allocatorIcEEE5__repES5_EC1ILb1EvEEv
FN:2134,_ZNSt3__117__compressed_pairINS_12basic_stringIcNS_11char_traitsIcEENS_9allocatorIcEEE5__repES5_EC2ILb1EvEEv
FN:2150,_ZNSt3__117__compressed_pairIPP8keyvalueRNS_9allocatorIS2_EEEC1IDnS6_EEOT_OT0_
FN:2150,_ZNSt3__117__compressed_pairIPP5valueRNS_9allocatorIS2_EEEC2IDnS6_EEOT_OT0_
FN:2150,_ZNSt3__117__compressed_pairIPP5valueRNS_9allocatorIS2_EEEC1IDnS6_EEOT_OT0_
FN:2150,_ZNSt3__117__compressed_pairIPP8keyvalueRNS_9allocatorIS2_EEEC2IDnS6_EEOT_OT0_
FN:2179,_ZNSt3__117__compressed_pairIPP5valueNS_9allocatorIS2_EEE5firstEv
FN:2179,_ZNSt3__117__compressed_pairIPP8keyvalueRNS_9allocatorIS2_EEE5firstEv
FN:2179,_ZNSt3__117__compressed_pairIPP5valueRNS_9allocatorIS2_EEE5firstEv
FN:2179,_ZNSt3__117__compressed_pairIPP8keyvalueNS_9allocatorIS2_EEE5firstEv
FN:2184,_ZNKSt3__117__compressed_pairINS_12basic_stringIcNS_11char_traitsIcEENS_9allocatorIcEEE5__repES5_E5firstEv
FN:2184,_ZNKSt3__117__compressed_pairIPP5valueRNS_9allocatorIS2_EEE5firstEv
FN:2184,_ZNKSt3__117__compressed_pairIPP8keyvalueNS_9allocatorIS2_EEE5firstEv
FN:2184,_ZNKSt3__117__compressed_pairIPP5valueNS_9allocatorIS2_EEE5firstEv
FN:2184,_ZNKSt3__117__compressed_pairIPP8keyvalueRNS_9allocatorIS2_EEE5firstEv
FN:2189,_ZNSt3__117__compressed_pairIPP8keyvalueRNS_9allocatorIS2_EEE6secondEv
FN:2189,_ZNSt3__117__compressed_pairIPP5valueNS_9allocatorIS2_EEE6secondEv
FN:2189,_ZNSt3__117__compressed_pairIPP5valueRNS_9allocatorIS2_EEE6secondEv
FN:2189,_ZNSt3__117__compressed_pairIPP8keyvalueNS_9allocatorIS2_EEE6secondEv
FN:2194,_ZNKSt3__117__compressed_pairIPP5valueNS_9allocatorIS2_EEE6secondEv
FN:2194,_ZNKSt3__117__compressed_pairIPP8keyvalueNS_9allocatorIS2_EEE6secondEv
FNDA:0,_ZNSt3__114pointer_traitsIPKcE10pointer_toERS1_
FNDA:49,_ZNSt3__116__to_raw_pointerIP8keyvalueEEPT_S4_
FNDA:0,_ZNSt3__116__to_raw_pointerIKcEEPT_S3_
FNDA:19,_ZNSt3__116__to_raw_pointerIP5valueEEPT_S4_
FNDA:4,_ZNSt3__116allocator_traitsINS_9allocatorIP8keyvalueEEE8allocateERS4_m
FNDA:2,_ZNSt3__116allocator_traitsINS_9allocatorIP5valueEEE8allocateERS4_m
FNDA:4,_ZNSt3__116allocator_traitsINS_9allocatorIP8keyvalueEEE10deallocateERS4_PS3_m
FNDA:1,_ZNSt3__116allocator_traitsINS_9allocatorIP5valueEEE10deallocateERS4_PS3_m
FNDA:5,_ZNSt3__116allocator_traitsINS_9allocatorIP8keyvalueEEE9constructIS3_JS3_EEEvRS4_PT_DpOT0_
FNDA:2,_ZNSt3__116allocator_traitsINS_9allocatorIP5valueEEE9constructIS3_JS3_EEEvRS4_PT_DpOT0_
FNDA:12,_ZNSt3__116allocator_traitsINS_9allocatorIP8keyvalueEEE7destroyIS3_EEvRS4_PT_
FNDA:1,_ZNSt3__116allocator_traitsINS_9allocatorIP5valueEEE7destroyIS3_EEvRS4_PT_
FNDA:4,_ZNSt3__116allocator_traitsINS_9allocatorIP8keyvalueEEE8max_sizeERKS4_
FNDA:2,_ZNSt3__116allocator_traitsINS_9allocatorIP5valueEEE8max_sizeERKS4_
FNDA:4,_ZNSt3__116allocator_traitsINS_9allocatorIP8keyvalueEEE20__construct_backwardIS3_EENS_9enable_ifIXaaoosr7is_sameIS4_NS1_IT_EEEE5valuentsr15__has_constructIS4_PS8_S8_EE5valuesr31is_trivially_move_constructibleIS8_EE5valueEvE4typeERS4_SA_SA_RSA_
FNDA:2,_ZNSt3__116allocator_traitsINS_9allocatorIP5valueEEE20__construct_backwardIS3_EENS_9enable_ifIXaaoosr7is_sameIS4_NS1_IT_EEEE5valuentsr15__has_constructIS4_PS8_S8_EE5valuesr31is_trivially_move_constructibleIS8_EE5valueEvE4typeERS4_SA_SA_RSA_
FNDA:5,_ZNSt3__116allocator_traitsINS_9allocatorIP8keyvalueEEE11__constructIS3_JS3_EEEvNS_17integral_constantIbLb1EEERS4_PT_DpOT0_
FNDA:2,_ZNSt3__116allocator_traitsINS_9allocatorIP5valueEEE11__constructIS3_JS3_EEEvNS_17integral_constantIbLb1EEERS4_PT_DpOT0_
FNDA:12,_ZNSt3__116allocator_traitsINS_9allocatorIP8keyvalueEEE9__destroyIS3_EEvNS_17integral_constantIbLb1EEERS4_PT_
FNDA:1,_ZNSt3__116allocator_traitsINS_9allocatorIP5valueEEE9__destroyIS3_EEvNS_17integral_constantIbLb1EEERS4_PT_
FNDA:4,_ZNSt3__116allocator_traitsINS_9allocatorIP8keyvalueEEE10__max_sizeENS_17integral_constantIbLb1EEERKS4_
FNDA:2,_ZNSt3__116allocator_traitsINS_9allocatorIP5valueEEE10__max_sizeENS_17integral_constantIbLb1EEERKS4_
FNDA:0,_ZNSt3__19allocatorIcEC2Ev
FNDA:4,_ZNSt3__19allocatorIP8keyvalueE8allocateEmPKv
FNDA:2,_ZNSt3__19allocatorIP5valueE8allocateEmPKv
FNDA:4,_ZNSt3__19allocatorIP8keyvalueE10deallocateEPS2_m
FNDA:1,_ZNSt3__19allocatorIP5valueE10deallocateEPS2_m
FNDA:8,_ZNKSt3__19allocatorIP8keyvalueE8max_sizeEv
FNDA:4,_ZNKSt3__19allocatorIP5valueE8max_sizeEv
FNDA:5,_ZNSt3__19allocatorIP8keyvalueE9constructIS2_JS2_EEEvPT_DpOT0_
FNDA:2,_ZNSt3__19allocatorIP5valueE9constructIS2_JS2_EEEvPT_DpOT0_
FNDA:12,_ZNSt3__19allocatorIP8keyvalueE7destroyEPS2_
FNDA:1,_ZNSt3__19allocatorIP5valueE7destroyEPS2_
FNDA:0,_ZNSt3__122__compressed_pair_elemINS_12basic_stringIcNS_11char_traitsIcEENS_9allocatorIcEEE5__repELi0ELb0EEC2Ev
FNDA:4,_ZNSt3__122__compressed_pair_elemIPP8keyvalueLi0ELb0EEC2IDnvEEOT_
FNDA:4,_ZNSt3__122__compressed_pair_elemIRNS_9allocatorIP8keyvalueEELi1ELb0EEC2IS5_vEEOT_
FNDA:2,_ZNSt3__122__compressed_pair_elemIPP5valueLi0ELb0EEC2IDnvEEOT_
FNDA:2,_ZNSt3__122__compressed_pair_elemIRNS_9allocatorIP5valueEELi1ELb0EEC2IS5_vEEOT_
FNDA:17,_ZNSt3__122__compressed_pair_elemIPP8keyvalueLi0ELb0EE5__getEv
FNDA:14,_ZNSt3__122__compressed_pair_elemIRNS_9allocatorIP8keyvalueEELi1ELb0EE5__getEv
FNDA:8,_ZNSt3__122__compressed_pair_elemIPP5valueLi0ELb0EE5__getEv
FNDA:4,_ZNSt3__122__compressed_pair_elemIRNS_9allocatorIP5valueEELi1ELb0EE5__getEv
FNDA:24,_ZNKSt3__122__compressed_pair_elemIPP8keyvalueLi0ELb0EE5__getEv
FNDA:0,_ZNKSt3__122__compressed_pair_elemINS_12basic_stringIcNS_11char_traitsIcEENS_9allocatorIcEEE5__repELi0ELb0EE5__getEv
FNDA:11,_ZNKSt3__122__compressed_pair_elemIPP5valueLi0ELb0EE5__getEv
FNDA:0,_ZNSt3__122__compressed_pair_elemINS_9allocatorIcEELi1ELb1EEC2Ev
FNDA:15,_ZNSt3__122__compressed_pair_elemINS_9allocatorIP8keyvalueEELi1ELb1EE5__getEv
FNDA:4,_ZNSt3__122__compressed_pair_elemINS_9allocatorIP5valueEELi1ELb1EE5__getEv
FNDA:4,_ZNKSt3__122__compressed_pair_elemINS_9allocatorIP8keyvalueEELi1ELb1EE5__getEv
FNDA:2,_ZNKSt3__122__compressed_pair_elemINS_9allocatorIP5valueEELi1ELb1EE5__getEv
FNDA:0,_ZNSt3__117__compressed_pairINS_12basic_stringIcNS_11char_traitsIcEENS_9allocatorIcEEE5__repES5_EC1ILb1EvEEv
FNDA:0,_ZNSt3__117__compressed_pairINS_12basic_stringIcNS_11char_traitsIcEENS_9allocatorIcEEE5__repES5_EC2ILb1EvEEv
FNDA:4,_ZNSt3__117__compressed_pairIPP8keyvalueRNS_9allocatorIS2_EEEC1IDnS6_EEOT_OT0_
FNDA:4,_ZNSt3__117__compressed_pairIPP8keyvalueRNS_9allocatorIS2_EEEC2IDnS6_EEOT_OT0_
FNDA:2,_ZNSt3__117__compressed_pairIPP5valueRNS_9allocatorIS2_EEEC1IDnS6_EEOT_OT0_
FNDA:2,_ZNSt3__117__compressed_pairIPP5valueRNS_9allocatorIS2_EEEC2IDnS6_EEOT_OT0_
FNDA:9,_ZNSt3__117__compressed_pairIPP8keyvalueNS_9allocatorIS2_EEE5firstEv
FNDA:8,_ZNSt3__117__compressed_pairIPP8keyvalueRNS_9allocatorIS2_EEE5firstEv
FNDA:4,_ZNSt3__117__compressed_pairIPP5valueNS_9allocatorIS2_EEE5firstEv
FNDA:4,_ZNSt3__117__compressed_pairIPP5valueRNS_9allocatorIS2_EEE5firstEv
FNDA:21,_ZNKSt3__117__compressed_pairIPP8keyvalueNS_9allocatorIS2_EEE5firstEv
FNDA:0,_ZNKSt3__117__compressed_pairINS_12basic_stringIcNS_11char_traitsIcEENS_9allocatorIcEEE5__repES5_E5firstEv
FNDA:3,_ZNKSt3__117__compressed_pairIPP8keyvalueRNS_9allocatorIS2_EEE5firstEv
FNDA:10,_ZNKSt3__117__compressed_pairIPP5valueNS_9allocatorIS2_EEE5firstEv
FNDA:1,_ZNKSt3__117__compressed_pairIPP5valueRNS_9allocatorIS2_EEE5firstEv
FNDA:15,_ZNSt3__117__compressed_pairIPP8keyvalueNS_9allocatorIS2_EEE6secondEv
FNDA:14,_ZNSt3__117__compressed_pairIPP8keyvalueRNS_9allocatorIS2_EEE6secondEv
FNDA:4,_ZNSt3__117__compressed_pairIPP5valueNS_9allocatorIS2_EEE6secondEv
FNDA:4,_ZNSt3__117__compressed_pairIPP5valueRNS_9allocatorIS2_EEE6secondEv
FNDA:4,_ZNKSt3__117__compressed_pairIPP8keyvalueNS_9allocatorIS2_EEE6secondEv
FNDA:2,_ZNKSt3__117__compressed_pairIPP5valueNS_9allocatorIS2_EEE6secondEv
FNF:71
FNH:62
DA:979,0
DA:1097,68
DA:1502,6
DA:1510,5
DA:1516,14
DA:1517,14
DA:1550,13
DA:1554,12
DA:1649,6
DA:1650,6
DA:1651,6
DA:1652,4
DA:1653,6
DA:1670,7
DA:1682,13
DA:1692,6
DA:1736,0
DA:1744,6
DA:1745,0
DA:1747,6
DA:1750,10
DA:1752,12
DA:1759,7
DA:1760,7
DA:1814,13
DA:2043,0
DA:2051,12
DA:2064,43
DA:2066,35
DA:2080,0
DA:2102,19
DA:2104,6
DA:2134,0
DA:2151,12
DA:2180,25
DA:2185,35
DA:2190,37
DA:2195,6
LF:38
LH:32
end_of_record
SF:/Library/Developer/CommandLineTools/usr/include/c++/v1/new
FN:222,_ZNSt3__110__allocateEm
FN:230,_ZNSt3__119__libcpp_deallocateEPv
FNDA:6,_ZNSt3__110__allocateEm
FNDA:5,_ZNSt3__119__libcpp_deallocateEPv
FNF:2
FNH:2
DA:226,6
DA:234,5
DA:236,5
LF:3
LH:3
end_of_record
SF:/Library/Developer/CommandLineTools/usr/include/c++/v1/ostream
FN:254,_ZNKSt3__113basic_ostreamIcNS_11char_traitsIcEEE6sentrycvbEv
FN:714,_ZNSt3__124__put_character_sequenceIcNS_11char_traitsIcEEEERNS_13basic_ostreamIT_T0_EES7_PKS4_m
FN:862,_ZNSt3__1lsINS_11char_traitsIcEEEERNS_13basic_ostreamIcT_EES6_PKc
FNDA:312,_ZNKSt3__113basic_ostreamIcNS_11char_traitsIcEEE6sentrycvbEv
FNDA:312,_ZNSt3__124__put_character_sequenceIcNS_11char_traitsIcEEEERNS_13basic_ostreamIT_T0_EES7_PKS4_m
FNDA:32,_ZNSt3__1lsINS_11char_traitsIcEEEERNS_13basic_ostreamIcT_EES6_PKc
FNF:3
FNH:3
DA:254,312
DA:721,312
DA:722,624
DA:725,1248
DA:726,312
DA:727,1248
DA:728,0
DA:729,312
DA:730,312
DA:731,312
DA:732,624
DA:733,0
DA:734,312
DA:736,312
DA:739,0
DA:740,0
DA:742,312
DA:743,0
DA:864,32
LF:19
LH:14
end_of_record
SF:/Library/Developer/CommandLineTools/usr/include/c++/v1/stdexcept
FN:136,_ZNSt12length_errorC2EPKc
FN:136,_ZNSt12length_errorC1EPKc
FN:222,_ZNSt3__120__throw_length_errorEPKc
FNDA:0,_ZNSt12length_errorC1EPKc
FNDA:0,_ZNSt12length_errorC2EPKc
FNDA:0,_ZNSt3__120__throw_length_errorEPKc
FNF:3
FNH:0
DA:136,0
DA:225,0
DA:230,0
LF:3
LH:0
end_of_record
SF:/Library/Developer/CommandLineTools/usr/include/c++/v1/streambuf
FN:226,_ZNSt3__115basic_streambufIcNS_11char_traitsIcEEE5sputnEPKcl
FNDA:312,_ZNSt3__115basic_streambufIcNS_11char_traitsIcEEE5sputnEPKcl
FNF:1
FNH:1
DA:227,312
LF:1
LH:1
end_of_record
SF:/Library/Developer/CommandLineTools/usr/include/c++/v1/string
FN:1127,_ZNKSt3__112basic_stringIcNS_11char_traitsIcEENS_9allocatorIcEEE5c_strEv
FN:1129,_ZNKSt3__112basic_stringIcNS_11char_traitsIcEENS_9allocatorIcEEE4dataEv
FN:1220,_ZNKSt3__112basic_stringIcNS_11char_traitsIcEENS_9allocatorIcEEE9__is_longEv
FN:1302,_ZNKSt3__112basic_stringIcNS_11char_traitsIcEENS_9allocatorIcEEE18__get_long_pointerEv
FN:1308,_ZNKSt3__112basic_stringIcNS_11char_traitsIcEENS_9allocatorIcEEE19__get_short_pointerEv
FN:1314,_ZNKSt3__112basic_stringIcNS_11char_traitsIcEENS_9allocatorIcEEE13__get_pointerEv
FN:1706,_ZNSt3__112basic_stringIcNS_11char_traitsIcEENS_9allocatorIcEEEC2Emc
FN:1706,_ZNSt3__112basic_stringIcNS_11char_traitsIcEENS_9allocatorIcEEEC1Emc
FNDA:0,_ZNKSt3__112basic_stringIcNS_11char_traitsIcEENS_9allocatorIcEEE5c_strEv
FNDA:0,_ZNKSt3__112basic_stringIcNS_11char_traitsIcEENS_9allocatorIcEEE4dataEv
FNDA:0,_ZNKSt3__112basic_stringIcNS_11char_traitsIcEENS_9allocatorIcEEE9__is_longEv
FNDA:0,_ZNKSt3__112basic_stringIcNS_11char_traitsIcEENS_9allocatorIcEEE18__get_long_pointerEv
FNDA:0,_ZNKSt3__112basic_stringIcNS_11char_traitsIcEENS_9allocatorIcEEE19__get_short_pointerEv
FNDA:0,_ZNKSt3__112basic_stringIcNS_11char_traitsIcEENS_9allocatorIcEEE13__get_pointerEv
FNDA:0,_ZNSt3__112basic_stringIcNS_11char_traitsIcEENS_9allocatorIcEEEC1Emc
FNDA:0,_ZNSt3__112basic_stringIcNS_11char_traitsIcEENS_9allocatorIcEEEC2Emc
FNF:8
FNH:0
DA:783,0
DA:1127,0
DA:1129,0
DA:1221,0
DA:1303,0
DA:1309,0
DA:1315,0
DA:1707,0
DA:1708,0
DA:1712,0
LF:10
LH:0
end_of_record
SF:/Library/Developer/CommandLineTools/usr/include/c++/v1/type_traits
FN:437,_ZNSt3__19addressofIKcEEPT_RS2_
FN:2210,_ZNSt3__14moveIRPP5valueEEONS_16remove_referenceIT_E4typeEOS6_
FN:2210,_ZNSt3__14moveIRPP8keyvalueEEONS_16remove_referenceIT_E4typeEOS6_
FN:2210,_ZNSt3__14moveIRP8keyvalueEEONS_16remove_referenceIT_E4typeEOS5_
FN:2210,_ZNSt3__14moveIRP5valueEEONS_16remove_referenceIT_E4typeEOS5_
FN:2219,_ZNSt3__17forwardIP8keyvalueEEOT_RNS_16remove_referenceIS3_E4typeE
FN:2219,_ZNSt3__17forwardIRNS_9allocatorIP5valueEEEEOT_RNS_16remove_referenceIS6_E4typeE
FN:2219,_ZNSt3__17forwardIRNS_9allocatorIP8keyvalueEEEEOT_RNS_16remove_referenceIS6_E4typeE
FN:2219,_ZNSt3__17forwardIDnEEOT_RNS_16remove_referenceIS1_E4typeE
FN:2219,_ZNSt3__17forwardIP5valueEEOT_RNS_16remove_referenceIS3_E4typeE
FN:4454,_ZNSt3__14swapIPP5valueEENS_9enable_ifIXaasr21is_move_constructibleIT_EE5valuesr18is_move_assignableIS5_EE5valueEvE4typeERS5_S8_
FN:4454,_ZNSt3__14swapIPP8keyvalueEENS_9enable_ifIXaasr21is_move_constructibleIT_EE5valuesr18is_move_assignableIS5_EE5valueEvE4typeERS5_S8_
FNDA:0,_ZNSt3__19addressofIKcEEPT_RS2_
FNDA:5,_ZNSt3__14moveIRP8keyvalueEEONS_16remove_referenceIT_E4typeEOS5_
FNDA:36,_ZNSt3__14moveIRPP8keyvalueEEONS_16remove_referenceIT_E4typeEOS6_
FNDA:2,_ZNSt3__14moveIRP5valueEEONS_16remove_referenceIT_E4typeEOS5_
FNDA:18,_ZNSt3__14moveIRPP5valueEEONS_16remove_referenceIT_E4typeEOS6_
FNDA:19,_ZNSt3__17forwardIP8keyvalueEEOT_RNS_16remove_referenceIS3_E4typeE
FNDA:12,_ZNSt3__17forwardIDnEEOT_RNS_16remove_referenceIS1_E4typeE
FNDA:8,_ZNSt3__17forwardIRNS_9allocatorIP8keyvalueEEEEOT_RNS_16remove_referenceIS6_E4typeE
FNDA:8,_ZNSt3__17forwardIP5valueEEOT_RNS_16remove_referenceIS3_E4typeE
FNDA:4,_ZNSt3__17forwardIRNS_9allocatorIP5valueEEEEOT_RNS_16remove_referenceIS6_E4typeE
FNDA:12,_ZNSt3__14swapIPP8keyvalueEENS_9enable_ifIXaasr21is_move_constructibleIT_EE5valuesr18is_move_assignableIS5_EE5valueEvE4typeERS5_S8_
FNDA:6,_ZNSt3__14swapIPP5valueEENS_9enable_ifIXaasr21is_move_constructibleIT_EE5valuesr18is_move_assignableIS5_EE5valueEvE4typeERS5_S8_
FNF:12
FNH:11
DA:439,0
DA:2213,61
DA:2221,51
DA:4457,18
DA:4458,18
DA:4459,18
DA:4460,18
LF:7
LH:6
end_of_record
SF:/Library/Developer/CommandLineTools/usr/include/c++/v1/vector
FN:337,_ZNSt3__113__vector_baseIP5valueNS_9allocatorIS2_EEE7__allocEv
FN:337,_ZNSt3__113__vector_baseIP8keyvalueNS_9allocatorIS2_EEE7__allocEv
FN:340,_ZNKSt3__113__vector_baseIP5valueNS_9allocatorIS2_EEE7__allocEv
FN:340,_ZNKSt3__113__vector_baseIP8keyvalueNS_9allocatorIS2_EEE7__allocEv
FN:343,_ZNSt3__113__vector_baseIP8keyvalueNS_9allocatorIS2_EEE9__end_capEv
FN:343,_ZNSt3__113__vector_baseIP5valueNS_9allocatorIS2_EEE9__end_capEv
FN:346,_ZNKSt3__113__vector_baseIP5valueNS_9allocatorIS2_EEE9__end_capEv
FN:346,_ZNKSt3__113__vector_baseIP8keyvalueNS_9allocatorIS2_EEE9__end_capEv
FN:356,_ZNSt3__113__vector_baseIP8keyvalueNS_9allocatorIS2_EEE5clearEv
FN:358,_ZNKSt3__113__vector_baseIP5valueNS_9allocatorIS2_EEE8capacityEv
FN:358,_ZNKSt3__113__vector_baseIP8keyvalueNS_9allocatorIS2_EEE8capacityEv
FN:409,_ZNSt3__113__vector_baseIP8keyvalueNS_9allocatorIS2_EEE17__destruct_at_endEPS2_
FN:437,_ZNSt3__113__vector_baseIP8keyvalueNS_9allocatorIS2_EEED2Ev
FN:447,_ZNSt3__16vectorIP8keyvalueNS_9allocatorIS2_EEED2Ev
FN:447,_ZNSt3__16vectorIP8keyvalueNS_9allocatorIS2_EEED1Ev
FN:632,_ZNKSt3__16vectorIP5valueNS_9allocatorIS2_EEE4sizeEv
FN:632,_ZNKSt3__16vectorIP8keyvalueNS_9allocatorIS2_EEE4sizeEv
FN:635,_ZNKSt3__16vectorIP5valueNS_9allocatorIS2_EEE8capacityEv
FN:635,_ZNKSt3__16vectorIP8keyvalueNS_9allocatorIS2_EEE8capacityEv
FN:674,_ZNKSt3__16vectorIP8keyvalueNS_9allocatorIS2_EEE4dataEv
FN:674,_ZNKSt3__16vectorIP5valueNS_9allocatorIS2_EEE4dataEv
FN:827,_ZNKSt3__16vectorIP5valueNS_9allocatorIS2_EEE31__annotate_contiguous_containerEPKvS7_S7_S7_
FN:827,_ZNKSt3__16vectorIP8keyvalueNS_9allocatorIS2_EEE31__annotate_contiguous_containerEPKvS7_S7_S7_
FN:831,_ZNKSt3__16vectorIP8keyvalueNS_9allocatorIS2_EEE14__annotate_newEm
FN:831,_ZNKSt3__16vectorIP5valueNS_9allocatorIS2_EEE14__annotate_newEm
FN:837,_ZNKSt3__16vectorIP5valueNS_9allocatorIS2_EEE17__annotate_deleteEv
FN:837,_ZNKSt3__16vectorIP8keyvalueNS_9allocatorIS2_EEE17__annotate_deleteEv
FN:875,_ZNSt3__16vectorIP8keyvalueNS_9allocatorIS2_EEE24__RAII_IncreaseAnnotatorC1ERKS5_m
FN:875,_ZNSt3__16vectorIP5valueNS_9allocatorIS2_EEE24__RAII_IncreaseAnnotatorC1ERKS5_m
FN:875,_ZNSt3__16vectorIP5valueNS_9allocatorIS2_EEE24__RAII_IncreaseAnnotatorC2ERKS5_m
FN:875,_ZNSt3__16vectorIP8keyvalueNS_9allocatorIS2_EEE24__RAII_IncreaseAnnotatorC2ERKS5_m
FN:876,_ZNSt3__16vectorIP5valueNS_9allocatorIS2_EEE24__RAII_IncreaseAnnotator6__doneEv
FN:876,_ZNSt3__16vectorIP8keyvalueNS_9allocatorIS2_EEE24__RAII_IncreaseAnnotator6__doneEv
FN:884,_ZNSt3__16vectorIP8keyvalueNS_9allocatorIS2_EEE26__swap_out_circular_bufferERNS_14__split_bufferIS2_RS4_EE
FN:884,_ZNSt3__16vectorIP5valueNS_9allocatorIS2_EEE26__swap_out_circular_bufferERNS_14__split_bufferIS2_RS4_EE
FN:945,_ZNKSt3__16vectorIP8keyvalueNS_9allocatorIS2_EEE8max_sizeEv
FN:945,_ZNKSt3__16vectorIP5valueNS_9allocatorIS2_EEE8max_sizeEv
FN:955,_ZNKSt3__16vectorIP5valueNS_9allocatorIS2_EEE11__recommendEm
FN:955,_ZNKSt3__16vectorIP8keyvalueNS_9allocatorIS2_EEE11__recommendEm
FN:1561,_ZNSt3__16vectorIP5valueNS_9allocatorIS2_EEE21__push_back_slow_pathIS2_EEvOT_
FN:1561,_ZNSt3__16vectorIP8keyvalueNS_9allocatorIS2_EEE21__push_back_slow_pathIS2_EEvOT_
FN:1596,_ZNSt3__16vectorIP8keyvalueNS_9allocatorIS2_EEE9push_backEOS2_
FN:1596,_ZNSt3__16vectorIP5valueNS_9allocatorIS2_EEE9push_backEOS2_
FN:2095,_ZNSt3__16vectorIP8keyvalueNS_9allocatorIS2_EEE26__invalidate_all_iteratorsEv
FN:2095,_ZNSt3__16vectorIP5valueNS_9allocatorIS2_EEE26__invalidate_all_iteratorsEv
FNDA:15,_ZNSt3__113__vector_baseIP8keyvalueNS_9allocatorIS2_EEE7__allocEv
FNDA:4,_ZNSt3__113__vector_baseIP5valueNS_9allocatorIS2_EEE7__allocEv
FNDA:4,_ZNKSt3__113__vector_baseIP8keyvalueNS_9allocatorIS2_EEE7__allocEv
FNDA:2,_ZNKSt3__113__vector_baseIP5valueNS_9allocatorIS2_EEE7__allocEv
FNDA:9,_ZNSt3__113__vector_baseIP8keyvalueNS_9allocatorIS2_EEE9__end_capEv
FNDA:4,_ZNSt3__113__vector_baseIP5valueNS_9allocatorIS2_EEE9__end_capEv
FNDA:21,_ZNKSt3__113__vector_baseIP8keyvalueNS_9allocatorIS2_EEE9__end_capEv
FNDA:10,_ZNKSt3__113__vector_baseIP5valueNS_9allocatorIS2_EEE9__end_capEv
FNDA:1,_ZNSt3__113__vector_baseIP8keyvalueNS_9allocatorIS2_EEE5clearEv
FNDA:21,_ZNKSt3__113__vector_baseIP8keyvalueNS_9allocatorIS2_EEE8capacityEv
FNDA:10,_ZNKSt3__113__vector_baseIP5valueNS_9allocatorIS2_EEE8capacityEv
FNDA:1,_ZNSt3__113__vector_baseIP8keyvalueNS_9allocatorIS2_EEE17__destruct_at_endEPS2_
FNDA:3,_ZNSt3__113__vector_baseIP8keyvalueNS_9allocatorIS2_EEED2Ev
FNDA:3,_ZNSt3__16vectorIP8keyvalueNS_9allocatorIS2_EEED1Ev
FNDA:3,_ZNSt3__16vectorIP8keyvalueNS_9allocatorIS2_EEED2Ev
FNDA:16,_ZNKSt3__16vectorIP8keyvalueNS_9allocatorIS2_EEE4sizeEv
FNDA:8,_ZNKSt3__16vectorIP5valueNS_9allocatorIS2_EEE4sizeEv
FNDA:20,_ZNKSt3__16vectorIP8keyvalueNS_9allocatorIS2_EEE8capacityEv
FNDA:10,_ZNKSt3__16vectorIP5valueNS_9allocatorIS2_EEE8capacityEv
FNDA:32,_ZNKSt3__16vectorIP8keyvalueNS_9allocatorIS2_EEE4dataEv
FNDA:16,_ZNKSt3__16vectorIP5valueNS_9allocatorIS2_EEE4dataEv
FNDA:8,_ZNKSt3__16vectorIP8keyvalueNS_9allocatorIS2_EEE31__annotate_contiguous_containerEPKvS7_S7_S7_
FNDA:4,_ZNKSt3__16vectorIP5valueNS_9allocatorIS2_EEE31__annotate_contiguous_containerEPKvS7_S7_S7_
FNDA:4,_ZNKSt3__16vectorIP8keyvalueNS_9allocatorIS2_EEE14__annotate_newEm
FNDA:2,_ZNKSt3__16vectorIP5valueNS_9allocatorIS2_EEE14__annotate_newEm
FNDA:4,_ZNKSt3__16vectorIP8keyvalueNS_9allocatorIS2_EEE17__annotate_deleteEv
FNDA:2,_ZNKSt3__16vectorIP5valueNS_9allocatorIS2_EEE17__annotate_deleteEv
FNDA:1,_ZNSt3__16vectorIP8keyvalueNS_9allocatorIS2_EEE24__RAII_IncreaseAnnotatorC1ERKS5_m
FNDA:1,_ZNSt3__16vectorIP8keyvalueNS_9allocatorIS2_EEE24__RAII_IncreaseAnnotatorC2ERKS5_m
FNDA:0,_ZNSt3__16vectorIP5valueNS_9allocatorIS2_EEE24__RAII_IncreaseAnnotatorC1ERKS5_m
FNDA:0,_ZNSt3__16vectorIP5valueNS_9allocatorIS2_EEE24__RAII_IncreaseAnnotatorC2ERKS5_m
FNDA:1,_ZNSt3__16vectorIP8keyvalueNS_9allocatorIS2_EEE24__RAII_IncreaseAnnotator6__doneEv
FNDA:0,_ZNSt3__16vectorIP5valueNS_9allocatorIS2_EEE24__RAII_IncreaseAnnotator6__doneEv
FNDA:4,_ZNSt3__16vectorIP8keyvalueNS_9allocatorIS2_EEE26__swap_out_circular_bufferERNS_14__split_bufferIS2_RS4_EE
FNDA:2,_ZNSt3__16vectorIP5valueNS_9allocatorIS2_EEE26__swap_out_circular_bufferERNS_14__split_bufferIS2_RS4_EE
FNDA:4,_ZNKSt3__16vectorIP8keyvalueNS_9allocatorIS2_EEE8max_sizeEv
FNDA:2,_ZNKSt3__16vectorIP5valueNS_9allocatorIS2_EEE8max_sizeEv
FNDA:4,_ZNKSt3__16vectorIP8keyvalueNS_9allocatorIS2_EEE11__recommendEm
FNDA:2,_ZNKSt3__16vectorIP5valueNS_9allocatorIS2_EEE11__recommendEm
FNDA:4,_ZNSt3__16vectorIP8keyvalueNS_9allocatorIS2_EEE21__push_back_slow_pathIS2_EEvOT_
FNDA:2,_ZNSt3__16vectorIP5valueNS_9allocatorIS2_EEE21__push_back_slow_pathIS2_EEvOT_
FNDA:5,_ZNSt3__16vectorIP8keyvalueNS_9allocatorIS2_EEE9push_backEOS2_
FNDA:2,_ZNSt3__16vectorIP5valueNS_9allocatorIS2_EEE9push_backEOS2_
FNDA:4,_ZNSt3__16vectorIP8keyvalueNS_9allocatorIS2_EEE26__invalidate_all_iteratorsEv
FNDA:2,_ZNSt3__16vectorIP5valueNS_9allocatorIS2_EEE26__invalidate_all_iteratorsEv
FNF:45
FNH:42
DA:338,19
DA:341,6
DA:344,13
DA:347,31
DA:356,1
DA:359,31
DA:411,1
DA:412,12
DA:413,5
DA:414,1
DA:415,1
DA:439,3
DA:441,1
DA:442,1
DA:443,1
DA:444,3
DA:447,6
DA:633,24
DA:636,30
DA:675,48
DA:828,12
DA:832,12
DA:833,6
DA:834,6
DA:838,12
DA:839,6
DA:840,6
DA:875,2
DA:876,1
DA:886,6
DA:887,6
DA:888,6
DA:889,6
DA:890,6
DA:891,6
DA:892,6
DA:893,6
DA:894,6
DA:947,18
DA:948,6
DA:957,6
DA:958,6
DA:959,0
DA:960,6
DA:961,6
DA:962,0
DA:963,6
DA:964,6
DA:1566,6
DA:1567,6
DA:1569,6
DA:1570,6
DA:1571,6
DA:1572,6
DA:1598,7
DA:1600,1
DA:1601,2
DA:1602,1
DA:1603,1
DA:1604,1
DA:1605,1
DA:1606,1
DA:1608,6
DA:1609,7
DA:2100,6
LF:65
LH:63
end_of_record
SF:/usr/include/gtest/gtest-message.h
FN:85,_ZN7testing7MessageD1Ev
FN:85,_ZN7testing7MessageD2Ev
FN:115,_ZN7testing7MessagelsIA10_cEERS0_RKT_
FN:115,_ZN7testing7MessagelsIA20_cEERS0_RKT_
FNDA:49,_ZN7testing7MessageD1Ev
FNDA:49,_ZN7testing7MessageD2Ev
FNDA:0,_ZN7testing7MessagelsIA10_cEERS0_RKT_
FNDA:0,_ZN7testing7MessagelsIA20_cEERS0_RKT_
FNF:4
FNH:2
DA:85,98
DA:131,0
DA:132,0
LF:3
LH:1
end_of_record
SF:/usr/include/gtest/gtest.h
FN:256,_ZN7testing15AssertionResultD2Ev
FN:256,_ZN7testing15AssertionResultD1Ev
FN:262,_ZN7testing15AssertionResultC1Eb
FN:262,_ZN7testing15AssertionResultC2Eb
FN:265,_ZNK7testing15AssertionResultcvbEv
FN:365,_ZN7testing4Test13SetUpTestCaseEv
FN:373,_ZN7testing4Test16TearDownTestCaseEv
FN:451,_ZN7testing4Test5SetupEv
FN:2287,_Z13RUN_ALL_TESTSv
FNDA:49,_ZN7testing15AssertionResultD1Ev
FNDA:49,_ZN7testing15AssertionResultD2Ev
FNDA:49,_ZN7testing15AssertionResultC1Eb
FNDA:49,_ZN7testing15AssertionResultC2Eb
FNDA:49,_ZNK7testing15AssertionResultcvbEv
FNDA:1,_ZN7testing4Test13SetUpTestCaseEv
FNDA:1,_ZN7testing4Test16TearDownTestCaseEv
FNDA:0,_ZN7testing4Test5SetupEv
FNDA:1,_Z13RUN_ALL_TESTSv
FNF:9
FNH:8
DA:256,98
DA:262,98
DA:265,49
DA:365,2
DA:373,2
DA:451,0
DA:2288,2
LF:7
LH:6
end_of_record
SF:/usr/include/gtest/internal/gtest-internal.h
FN:436,_ZN7testing8internal15TestFactoryBaseD1Ev
FN:436,_ZN7testing8internal15TestFactoryBaseD0Ev
FN:436,_ZN7testing8internal15TestFactoryBaseD2Ev
FN:443,_ZN7testing8internal15TestFactoryBaseC2Ev
FN:452,_ZN7testing8internal15TestFactoryImplI19test_add_value_TestEC1Ev
FN:452,_ZN7testing8internal15TestFactoryImplI27test_json_new_keyvalue_TestED0Ev
FN:452,_ZN7testing8internal15TestFactoryImplI22test_json_new_obj_TestED2Ev
FN:452,_ZN7testing8internal15TestFactoryImplI22test_json_new_int_TestEC1Ev
FN:452,_ZN7testing8internal15TestFactoryImplI22test_json_new_bol_TestED1Ev
FN:452,_ZN7testing8internal15TestFactoryImplI22test_json_new_str_TestED1Ev
FN:452,_ZN7testing8internal15TestFactoryImplI22test_json_new_int_TestED0Ev
FN:452,_ZN7testing8internal15TestFactoryImplI22test_json_new_str_TestEC2Ev
FN:452,_ZN7testing8internal15TestFactoryImplI27test_json_new_keyvalue_TestEC1Ev
FN:452,_ZN7testing8internal15TestFactoryImplI27test_json_new_keyvalue_TestED2Ev
FN:452,_ZN7testing8internal15TestFactoryImplI22test_json_new_obj_TestED0Ev
FN:452,_ZN7testing8internal15TestFactoryImplI21test_json_create_TestEC1Ev
FN:452,_ZN7testing8internal15TestFactoryImplI21test_json_create_TestED0Ev
FN:452,_ZN7testing8internal15TestFactoryImplI21test_json_create_TestED1Ev
FN:452,_ZN7testing8internal15TestFactoryImplI22test_json_new_str_TestED2Ev
FN:452,_ZN7testing8internal15TestFactoryImplI22test_json_new_bol_TestEC1Ev
FN:452,_ZN7testing8internal15TestFactoryImplI19test_add_value_TestED2Ev
FN:452,_ZN7testing8internal15TestFactoryImplI24test_json_new_array_TestEC2Ev
FN:452,_ZN7testing8internal15TestFactoryImplI22test_json_new_str_TestED0Ev
FN:452,_ZN7testing8internal15TestFactoryImplI19test_add_value_TestEC2Ev
FN:452,_ZN7testing8internal15TestFactoryImplI22test_json_new_int_TestED1Ev
FN:452,_ZN7testing8internal15TestFactoryImplI19test_add_value_TestED1Ev
FN:452,_ZN7testing8internal15TestFactoryImplI19test_add_value_TestED0Ev
FN:452,_ZN7testing8internal15TestFactoryImplI22test_json_new_obj_TestEC2Ev
FN:452,_ZN7testing8internal15TestFactoryImplI22test_json_new_str_TestEC1Ev
FN:452,_ZN7testing8internal15TestFactoryImplI24test_json_new_array_TestEC1Ev
FN:452,_ZN7testing8internal15TestFactoryImplI22test_json_new_bol_TestEC2Ev
FN:452,_ZN7testing8internal15TestFactoryImplI22test_json_new_int_TestEC2Ev
FN:452,_ZN7testing8internal15TestFactoryImplI24test_json_new_array_TestED1Ev
FN:452,_ZN7testing8internal15TestFactoryImplI27test_json_new_keyvalue_TestED1Ev
FN:452,_ZN7testing8internal15TestFactoryImplI21test_json_create_TestED2Ev
FN:452,_ZN7testing8internal15TestFactoryImplI22test_json_new_obj_TestEC1Ev
FN:452,_ZN7testing8internal15TestFactoryImplI21test_json_create_TestEC2Ev
FN:452,_ZN7testing8internal15TestFactoryImplI24test_json_new_array_TestED2Ev
FN:452,_ZN7testing8internal15TestFactoryImplI27test_json_new_keyvalue_TestEC2Ev
FN:452,_ZN7testing8internal15TestFactoryImplI24test_json_new_array_TestED0Ev
FN:452,_ZN7testing8internal15TestFactoryImplI22test_json_new_obj_TestED1Ev
FN:452,_ZN7testing8internal15TestFactoryImplI22test_json_new_bol_TestED2Ev
FN:452,_ZN7testing8internal15TestFactoryImplI22test_json_new_bol_TestED0Ev
FN:452,_ZN7testing8internal15TestFactoryImplI22test_json_new_int_TestED2Ev
FN:454,_ZN7testing8internal15TestFactoryImplI21test_json_create_TestE10CreateTestEv
FN:454,_ZN7testing8internal15TestFactoryImplI22test_json_new_str_TestE10CreateTestEv
FN:454,_ZN7testing8internal15TestFactoryImplI22test_json_new_bol_TestE10CreateTestEv
FN:454,_ZN7testing8internal15TestFactoryImplI22test_json_new_int_TestE10CreateTestEv
FN:454,_ZN7testing8internal15TestFactoryImplI19test_add_value_TestE10CreateTestEv
FN:454,_ZN7testing8internal15TestFactoryImplI27test_json_new_keyvalue_TestE10CreateTestEv
FN:454,_ZN7testing8internal15TestFactoryImplI24test_json_new_array_TestE10CreateTestEv
FN:454,_ZN7testing8internal15TestFactoryImplI22test_json_new_obj_TestE10CreateTestEv
FNDA:0,_ZN7testing8internal15TestFactoryBaseD1Ev
FNDA:0,_ZN7testing8internal15TestFactoryBaseD0Ev
FNDA:8,_ZN7testing8internal15TestFactoryBaseD2Ev
FNDA:8,_ZN7testing8internal15TestFactoryBaseC2Ev
FNDA:1,_ZN7testing8internal15TestFactoryImplI21test_json_create_TestEC1Ev
FNDA:1,_ZN7testing8internal15TestFactoryImplI22test_json_new_int_TestEC1Ev
FNDA:1,_ZN7testing8internal15TestFactoryImplI22test_json_new_bol_TestEC1Ev
FNDA:1,_ZN7testing8internal15TestFactoryImplI22test_json_new_str_TestEC1Ev
FNDA:1,_ZN7testing8internal15TestFactoryImplI24test_json_new_array_TestEC1Ev
FNDA:1,_ZN7testing8internal15TestFactoryImplI22test_json_new_obj_TestEC1Ev
FNDA:1,_ZN7testing8internal15TestFactoryImplI27test_json_new_keyvalue_TestEC1Ev
FNDA:1,_ZN7testing8internal15TestFactoryImplI19test_add_value_TestEC1Ev
FNDA:1,_ZN7testing8internal15TestFactoryImplI21test_json_create_TestEC2Ev
FNDA:1,_ZN7testing8internal15TestFactoryImplI21test_json_create_TestED1Ev
FNDA:1,_ZN7testing8internal15TestFactoryImplI21test_json_create_TestED0Ev
FNDA:1,_ZN7testing8internal15TestFactoryImplI21test_json_create_TestED2Ev
FNDA:1,_ZN7testing8internal15TestFactoryImplI22test_json_new_int_TestEC2Ev
FNDA:1,_ZN7testing8internal15TestFactoryImplI22test_json_new_int_TestED1Ev
FNDA:1,_ZN7testing8internal15TestFactoryImplI22test_json_new_int_TestED0Ev
FNDA:1,_ZN7testing8internal15TestFactoryImplI22test_json_new_int_TestED2Ev
FNDA:1,_ZN7testing8internal15TestFactoryImplI22test_json_new_bol_TestEC2Ev
FNDA:1,_ZN7testing8internal15TestFactoryImplI22test_json_new_bol_TestED1Ev
FNDA:1,_ZN7testing8internal15TestFactoryImplI22test_json_new_bol_TestED0Ev
FNDA:1,_ZN7testing8internal15TestFactoryImplI22test_json_new_bol_TestED2Ev
FNDA:1,_ZN7testing8internal15TestFactoryImplI22test_json_new_str_TestEC2Ev
FNDA:1,_ZN7testing8internal15TestFactoryImplI22test_json_new_str_TestED1Ev
FNDA:1,_ZN7testing8internal15TestFactoryImplI22test_json_new_str_TestED0Ev
FNDA:1,_ZN7testing8internal15TestFactoryImplI22test_json_new_str_TestED2Ev
FNDA:1,_ZN7testing8internal15TestFactoryImplI24test_json_new_array_TestEC2Ev
FNDA:1,_ZN7testing8internal15TestFactoryImplI24test_json_new_array_TestED1Ev
FNDA:1,_ZN7testing8internal15TestFactoryImplI24test_json_new_array_TestED0Ev
FNDA:1,_ZN7testing8internal15TestFactoryImplI24test_json_new_array_TestED2Ev
FNDA:1,_ZN7testing8internal15TestFactoryImplI22test_json_new_obj_TestEC2Ev
FNDA:1,_ZN7testing8internal15TestFactoryImplI22test_json_new_obj_TestED1Ev
FNDA:1,_ZN7testing8internal15TestFactoryImplI22test_json_new_obj_TestED0Ev
FNDA:1,_ZN7testing8internal15TestFactoryImplI22test_json_new_obj_TestED2Ev
FNDA:1,_ZN7testing8internal15TestFactoryImplI27test_json_new_keyvalue_TestEC2Ev
FNDA:1,_ZN7testing8internal15TestFactoryImplI27test_json_new_keyvalue_TestED1Ev
FNDA:1,_ZN7testing8internal15TestFactoryImplI27test_json_new_keyvalue_TestED0Ev
FNDA:1,_ZN7testing8internal15TestFactoryImplI27test_json_new_keyvalue_TestED2Ev
FNDA:1,_ZN7testing8internal15TestFactoryImplI19test_add_value_TestEC2Ev
FNDA:1,_ZN7testing8internal15TestFactoryImplI19test_add_value_TestED1Ev
FNDA:1,_ZN7testing8internal15TestFactoryImplI19test_add_value_TestED0Ev
FNDA:1,_ZN7testing8internal15TestFactoryImplI19test_add_value_TestED2Ev
FNDA:1,_ZN7testing8internal15TestFactoryImplI21test_json_create_TestE10CreateTestEv
FNDA:1,_ZN7testing8internal15TestFactoryImplI22test_json_new_int_TestE10CreateTestEv
FNDA:1,_ZN7testing8internal15TestFactoryImplI22test_json_new_bol_TestE10CreateTestEv
FNDA:1,_ZN7testing8internal15TestFactoryImplI22test_json_new_str_TestE10CreateTestEv
FNDA:1,_ZN7testing8internal15TestFactoryImplI24test_json_new_array_TestE10CreateTestEv
FNDA:1,_ZN7testing8internal15TestFactoryImplI22test_json_new_obj_TestE10CreateTestEv
FNDA:1,_ZN7testing8internal15TestFactoryImplI27test_json_new_keyvalue_TestE10CreateTestEv
FNDA:1,_ZN7testing8internal15TestFactoryImplI19test_add_value_TestE10CreateTestEv
FNF:52
FNH:50
DA:436,8
DA:443,8
DA:452,40
DA:454,16
LF:4
LH:4
end_of_record
SF:/usr/include/gtest/internal/gtest-port.h
FN:894,_ZN7testing8internal10scoped_ptrINSt3__112basic_stringIcNS2_11char_traitsIcEENS2_9allocatorIcEEEEEC1EPS8_
FN:894,_ZN7testing8internal10scoped_ptrINSt3__112basic_stringIcNS2_11char_traitsIcEENS2_9allocatorIcEEEEEC2EPS8_
FN:895,_ZN7testing8internal10scoped_ptrINSt3__118basic_stringstreamIcNS2_11char_traitsIcEENS2_9allocatorIcEEEEED1Ev
FN:895,_ZN7testing8internal10scoped_ptrINSt3__112basic_stringIcNS2_11char_traitsIcEENS2_9allocatorIcEEEEED1Ev
FN:895,_ZN7testing8internal10scoped_ptrINSt3__112basic_stringIcNS2_11char_traitsIcEENS2_9allocatorIcEEEEED2Ev
FN:895,_ZN7testing8internal10scoped_ptrINSt3__118basic_stringstreamIcNS2_11char_traitsIcEENS2_9allocatorIcEEEEED2Ev
FN:897,_ZNK7testing8internal10scoped_ptrINSt3__118basic_stringstreamIcNS2_11char_traitsIcEENS2_9allocatorIcEEEEEdeEv
FN:907,_ZN7testing8internal10scoped_ptrINSt3__118basic_stringstreamIcNS2_11char_traitsIcEENS2_9allocatorIcEEEEE5resetEPS8_
FN:907,_ZN7testing8internal10scoped_ptrINSt3__112basic_stringIcNS2_11char_traitsIcEENS2_9allocatorIcEEEEE5resetEPS8_
FNDA:49,_ZN7testing8internal10scoped_ptrINSt3__112basic_stringIcNS2_11char_traitsIcEENS2_9allocatorIcEEEEEC1EPS8_
FNDA:49,_ZN7testing8internal10scoped_ptrINSt3__112basic_stringIcNS2_11char_traitsIcEENS2_9allocatorIcEEEEEC2EPS8_
FNDA:49,_ZN7testing8internal10scoped_ptrINSt3__118basic_stringstreamIcNS2_11char_traitsIcEENS2_9allocatorIcEEEEED1Ev
FNDA:49,_ZN7testing8internal10scoped_ptrINSt3__118basic_stringstreamIcNS2_11char_traitsIcEENS2_9allocatorIcEEEEED2Ev
FNDA:49,_ZN7testing8internal10scoped_ptrINSt3__112basic_stringIcNS2_11char_traitsIcEENS2_9allocatorIcEEEEED1Ev
FNDA:49,_ZN7testing8internal10scoped_ptrINSt3__112basic_stringIcNS2_11char_traitsIcEENS2_9allocatorIcEEEEED2Ev
FNDA:378,_ZNK7testing8internal10scoped_ptrINSt3__118basic_stringstreamIcNS2_11char_traitsIcEENS2_9allocatorIcEEEEEdeEv
FNDA:49,_ZN7testing8internal10scoped_ptrINSt3__118basic_stringstreamIcNS2_11char_traitsIcEENS2_9allocatorIcEEEEE5resetEPS8_
FNDA:49,_ZN7testing8internal10scoped_ptrINSt3__112basic_stringIcNS2_11char_traitsIcEENS2_9allocatorIcEEEEE5resetEPS8_
FNF:9
FNH:9
DA:894,98
DA:895,294
DA:897,378
DA:908,98
DA:909,49
DA:910,98
DA:911,49
DA:912,49
DA:913,49
DA:914,98
LF:10
LH:10
end_of_record
SF:/Users/siwangqishi/Desktop/learn/learnunix/c++gtest/json/json.h
FN:24,_ZN6objectD2Ev
FN:24,_ZN6objectD1Ev
FNDA:3,_ZN6objectD1Ev
FNDA:3,_ZN6objectD2Ev
FNF:2
FNH:2
DA:24,6
LF:1
LH:1
end_of_record
SF:/Users/siwangqishi/Desktop/learn/learnunix/c++gtest/json/jsontest.cpp
FN:4,_ZN21test_json_create_TestD1Ev
FN:4,_ZN21test_json_create_TestD0Ev
FN:4,_ZN21test_json_create_TestC2Ev
FN:4,_ZN21test_json_create_TestD2Ev
FN:4,__cxx_global_var_init
FN:4,_ZN21test_json_create_TestC1Ev
FN:4,_ZN21test_json_create_Test8TestBodyEv
FN:12,_ZN22test_json_new_int_TestD1Ev
FN:12,_ZN22test_json_new_int_TestC1Ev
FN:12,_ZN22test_json_new_int_TestC2Ev
FN:12,_ZN22test_json_new_int_TestD0Ev
FN:12,__cxx_global_var_init.9
FN:12,_ZN22test_json_new_int_Test8TestBodyEv
FN:12,_ZN22test_json_new_int_TestD2Ev
FN:20,_ZN22test_json_new_bol_TestC1Ev
FN:20,_ZN22test_json_new_bol_TestC2Ev
FN:20,__cxx_global_var_init.13
FN:20,_ZN22test_json_new_bol_TestD0Ev
FN:20,_ZN22test_json_new_bol_TestD1Ev
FN:20,_ZN22test_json_new_bol_TestD2Ev
FN:20,_ZN22test_json_new_bol_Test8TestBodyEv
FN:28,_ZN22test_json_new_str_TestD0Ev
FN:28,__cxx_global_var_init.17
FN:28,_ZN22test_json_new_str_TestD2Ev
FN:28,_ZN22test_json_new_str_Test8TestBodyEv
FN:28,_ZN22test_json_new_str_TestC1Ev
FN:28,_ZN22test_json_new_str_TestD1Ev
FN:28,_ZN22test_json_new_str_TestC2Ev
FN:37,_ZN24test_json_new_array_TestC2Ev
FN:37,_ZN24test_json_new_array_Test8TestBodyEv
FN:37,_ZN24test_json_new_array_TestD2Ev
FN:37,_ZN24test_json_new_array_TestD0Ev
FN:37,_ZN24test_json_new_array_TestD1Ev
FN:37,__cxx_global_var_init.21
FN:37,_ZN24test_json_new_array_TestC1Ev
FN:45,_ZN22test_json_new_obj_TestD1Ev
FN:45,_ZN22test_json_new_obj_TestC2Ev
FN:45,_ZN22test_json_new_obj_Test8TestBodyEv
FN:45,_ZN22test_json_new_obj_TestD2Ev
FN:45,_ZN22test_json_new_obj_TestC1Ev
FN:45,__cxx_global_var_init.25
FN:45,_ZN22test_json_new_obj_TestD0Ev
FN:54,__cxx_global_var_init.29
FN:54,_ZN27test_json_new_keyvalue_TestC2Ev
FN:54,_ZN27test_json_new_keyvalue_TestC1Ev
FN:54,_ZN27test_json_new_keyvalue_TestD2Ev
FN:54,_ZN27test_json_new_keyvalue_TestD0Ev
FN:54,_ZN27test_json_new_keyvalue_Test8TestBodyEv
FN:54,_ZN27test_json_new_keyvalue_TestD1Ev
FN:117,_ZN19test_add_value_TestD1Ev
FN:117,_ZN19test_add_value_TestD2Ev
FN:117,__cxx_global_var_init.54
FN:117,_ZN19test_add_value_TestD0Ev
FN:117,_ZN19test_add_value_TestC2Ev
FN:117,_ZN19test_add_value_TestC1Ev
FN:117,_ZN19test_add_value_Test8TestBodyEv
FN:143,main
FNDA:1,__cxx_global_var_init
FNDA:1,_ZN21test_json_create_Test8TestBodyEv
FNDA:1,_ZN21test_json_create_TestD1Ev
FNDA:1,_ZN21test_json_create_TestD0Ev
FNDA:1,_ZN21test_json_create_TestC1Ev
FNDA:1,_ZN21test_json_create_TestC2Ev
FNDA:1,_ZN21test_json_create_TestD2Ev
FNDA:1,__cxx_global_var_init.9
FNDA:1,_ZN22test_json_new_int_Test8TestBodyEv
FNDA:1,_ZN22test_json_new_int_TestD1Ev
FNDA:1,_ZN22test_json_new_int_TestD0Ev
FNDA:1,_ZN22test_json_new_int_TestC1Ev
FNDA:1,_ZN22test_json_new_int_TestC2Ev
FNDA:1,_ZN22test_json_new_int_TestD2Ev
FNDA:1,__cxx_global_var_init.13
FNDA:1,_ZN22test_json_new_bol_Test8TestBodyEv
FNDA:1,_ZN22test_json_new_bol_TestD1Ev
FNDA:1,_ZN22test_json_new_bol_TestD0Ev
FNDA:1,_ZN22test_json_new_bol_TestC1Ev
FNDA:1,_ZN22test_json_new_bol_TestC2Ev
FNDA:1,_ZN22test_json_new_bol_TestD2Ev
FNDA:1,__cxx_global_var_init.17
FNDA:1,_ZN22test_json_new_str_Test8TestBodyEv
FNDA:1,_ZN22test_json_new_str_TestD1Ev
FNDA:1,_ZN22test_json_new_str_TestD0Ev
FNDA:1,_ZN22test_json_new_str_TestC1Ev
FNDA:1,_ZN22test_json_new_str_TestC2Ev
FNDA:1,_ZN22test_json_new_str_TestD2Ev
FNDA:1,__cxx_global_var_init.21
FNDA:1,_ZN24test_json_new_array_Test8TestBodyEv
FNDA:1,_ZN24test_json_new_array_TestD1Ev
FNDA:1,_ZN24test_json_new_array_TestD0Ev
FNDA:1,_ZN24test_json_new_array_TestC1Ev
FNDA:1,_ZN24test_json_new_array_TestC2Ev
FNDA:1,_ZN24test_json_new_array_TestD2Ev
FNDA:1,__cxx_global_var_init.25
FNDA:1,_ZN22test_json_new_obj_Test8TestBodyEv
FNDA:1,_ZN22test_json_new_obj_TestD1Ev
FNDA:1,_ZN22test_json_new_obj_TestD0Ev
FNDA:1,_ZN22test_json_new_obj_TestC1Ev
FNDA:1,_ZN22test_json_new_obj_TestC2Ev
FNDA:1,_ZN22test_json_new_obj_TestD2Ev
FNDA:1,__cxx_global_var_init.29
FNDA:1,_ZN27test_json_new_keyvalue_Test8TestBodyEv
FNDA:1,_ZN27test_json_new_keyvalue_TestD1Ev
FNDA:1,_ZN27test_json_new_keyvalue_TestD0Ev
FNDA:1,_ZN27test_json_new_keyvalue_TestC1Ev
FNDA:1,_ZN27test_json_new_keyvalue_TestC2Ev
FNDA:1,_ZN27test_json_new_keyvalue_TestD2Ev
FNDA:1,__cxx_global_var_init.54
FNDA:1,_ZN19test_add_value_Test8TestBodyEv
FNDA:1,_ZN19test_add_value_TestD1Ev
FNDA:1,_ZN19test_add_value_TestD0Ev
FNDA:1,_ZN19test_add_value_TestC1Ev
FNDA:1,_ZN19test_add_value_TestC2Ev
FNDA:1,_ZN19test_add_value_TestD2Ev
FNDA:1,main
FNF:57
FNH:57
DA:4,8
DA:6,1
DA:7,1
DA:8,5
DA:9,6
DA:10,1
DA:11,2
DA:12,8
DA:14,1
DA:15,1
DA:16,5
DA:17,6
DA:18,1
DA:19,2
DA:20,8
DA:22,1
DA:23,1
DA:24,5
DA:25,6
DA:26,1
DA:27,2
DA:28,8
DA:30,1
DA:31,1
DA:32,1
DA:33,5
DA:34,6
DA:35,1
DA:36,2
DA:37,8
DA:39,1
DA:40,1
DA:41,5
DA:42,6
DA:43,1
DA:44,2
DA:45,8
DA:47,1
DA:48,1
DA:49,5
DA:50,6
DA:51,1
DA:52,2
DA:54,8
DA:56,1
DA:57,1
DA:58,1
DA:59,1
DA:60,1
DA:61,1
DA:62,1
DA:63,1
DA:64,1
DA:66,1
DA:67,1
DA:68,5
DA:69,5
DA:70,5
DA:71,5
DA:72,1
DA:73,5
DA:74,5
DA:75,5
DA:77,1
DA:78,1
DA:79,5
DA:80,5
DA:81,5
DA:82,5
DA:83,5
DA:84,5
DA:86,1
DA:87,1
DA:88,5
DA:89,5
DA:90,5
DA:91,5
DA:92,5
DA:93,5
DA:95,1
DA:96,1
DA:97,5
DA:98,5
DA:99,5
DA:101,1
DA:102,1
DA:103,5
DA:104,5
DA:105,5
DA:107,2
DA:108,1
DA:109,1
DA:110,1
DA:111,5
DA:112,6
DA:114,1
DA:115,2
DA:117,8
DA:119,1
DA:120,1
DA:121,1
DA:122,5
DA:123,5
DA:125,1
DA:126,5
DA:127,5
DA:129,1
DA:130,5
DA:131,5
DA:133,1
DA:134,5
DA:135,5
DA:137,1
DA:138,5
DA:139,6
DA:141,1
DA:142,2
DA:145,1
DA:146,1
LF:119
LH:119
end_of_record
